(dp0
I1
I5279
sI2
I7323
sI3
I2536
sI4
I808
sI5
I334
sI6
I1185
sI7
I320
sI8
I1966
sI9
I1966
sI10
I4013
sI11
I9378
sI12
I4683
sI13
I8669
sI14
I2004
sI15
I3463
sI16
I1491
sI17
I469
sI18
I733
sI19
I8134
sI20
I1395
sI21
I11058
sI22
I969
sI23
I656
sI24
I6884
sI25
I3172
sI26
I3172
sI27
I1473
sI28
I2942
sI29
I6803
sI30
I1344
sI31
I419
sI32
I122
sI33
I2662
sI34
I81
sI35
I8105
sI36
I1523
sI37
I5048
sI38
I569
sI39
I4045
sI40
I3869
sI41
I11549
sI42
I3164
sI43
I186
sI44
I476
sI45
I1781
sI46
I2736
sI47
I8055
sI48
I904
sI49
I418
sI50
I997
sI51
I6141
sI52
I2611
sI53
I760
sI54
I6641
sI55
I3086
sI56
I3209
sI57
I11333
sI58
I10734
sI59
I2194
sI60
I1502
sI61
I7443
sI62
I5189
sI63
I4081
sI64
I2259
sI65
I3755
sI66
I7443
sI67
I1788
sI68
I435
sI69
I2998
sI70
I1758
sI71
I6759
sI72
I2062
sI73
I6367
sI74
I2489
sI75
I3763
sI76
I4756
sI77
I3173
sI78
I15567
sI79
I651
sI80
I3656
sI81
I356
sI82
I354
sI83
I264
sI84
I431
sI85
I5590
sI86
I2431
sI87
I1426
sI88
I746
sI89
I428
sI90
I1284
sI91
I13370
sI92
I9593
sI93
I5680
sI94
I8938
sI95
I2314
sI96
I12216
sI97
I12139
sI98
I4214
sI99
I395
sI100
I8641
sI101
I307
sI102
I12216
sI103
I1997
sI104
I3755
sI105
I469
sI106
I4622
sI107
I2750
sI108
I2236
sI109
I3987
sI110
I2236
sI111
I3965
sI112
I6246
sI113
I5333
sI114
I567
sI115
I13973
sI116
I13973
sI117
I2271
sI118
I2969
sI119
I1323
sI120
I8474
sI121
I2492
sI122
I254
sI123
I1714
sI124
I761
sI125
I4190
sI126
I2669
sI127
I21303
sI128
I14246
sI129
I561
sI130
I3744
sI131
I2244
sI132
I10986
sI133
I1001
sI134
I3507
sI135
I5888
sI136
I16396
sI137
I3952
sI138
I2400
sI139
I1554
sI140
I367
sI141
I8471
sI142
I2274
sI143
I4994
sI144
I92
sI145
I12158
sI146
I4756
sI147
I1740
sI148
I1525
sI149
I2616
sI150
I6360
sI151
I6360
sI152
I5655
sI153
I815
sI154
I5453
sI155
I6354
sI156
I5553
sI157
I5696
sI158
I1558
sI159
I2507
sI160
I8780
sI161
I1764
sI162
I4736
sI163
I2139
sI164
I367
sI165
I502
sI166
I1011
sI167
I1345
sI168
I9597
sI169
I4140
sI170
I2707
sI171
I1100
sI172
I7104
sI173
I3264
sI174
I947
sI175
I6701
sI176
I773
sI177
I1442
sI178
I1452
sI179
I1444
sI180
I4055
sI181
I5218
sI182
I60
sI183
I794
sI184
I2320
sI185
I4398
sI186
I6805
sI187
I882
sI188
I447
sI189
I4910
sI190
I12368
sI191
I13953
sI192
I229
sI193
I227
sI194
I140
sI195
I816
sI196
I16521
sI197
I5164
sI198
I2846
sI199
I5020
sI200
I4044
sI201
I4044
sI202
I8146
sI203
I122
sI204
I1296
sI205
I2157
sI206
I828
sI207
I1750
sI208
I1610
sI209
I850
sI210
I650
sI211
I4019
sI212
I146
sI213
I600
sI214
I635
sI215
I2932
sI216
I3235
sI217
I2209
sI218
I432
sI219
I2123
sI220
I1655
sI221
I2892
sI222
I6202
sI223
I1193
sI224
I1088
sI225
I3248
sI226
I1751
sI227
I2923
sI228
I3122
sI229
I7990
sI230
I51
sI231
I2479
sI232
I4427
sI233
I828
sI234
I11398
sI235
I2679
sI236
I2186
sI237
I9418
sI238
I8315
sI239
I5559
sI240
I3196
sI241
I2132
sI242
I2646
sI243
I2445
sI244
I13269
sI245
I8110
sI246
I4240
sI247
I3719
sI248
I287
sI249
I3660
sI250
I2861
sI251
I2996
sI252
I4736
sI253
I868
sI254
I91
sI255
I2717
sI256
I1024
sI257
I2671
sI258
I391
sI259
I8737
sI260
I365
sI261
I168
sI262
I1160
sI263
I1625
sI264
I4737
sI265
I87
sI266
I5410
sI267
I273
sI268
I69
sI269
I585
sI270
I1077
sI271
I315
sI272
I342
sI273
I1799
sI274
I163
sI275
I2450
sI276
I44
sI277
I3688
sI278
I2702
sI279
I1212
sI280
I1352
sI281
I793
sI282
I8737
sI283
I3033
sI284
I56
sI285
I624
sI286
I2491
sI287
I3190
sI288
I8063
sI289
I4161
sI290
I452
sI291
I2380
sI292
I5177
sI293
I2061
sI294
I3325
sI295
I6117
sI296
I2583
sI297
I929
sI298
I3340
sI299
I1905
sI300
I208
sI301
I8534
sI302
I7103
sI303
I4398
sI304
I2238
sI305
I5850
sI306
I909
sI307
I5850
sI308
I216
sI309
I4575
sI310
I964
sI311
I1161
sI312
I8419
sI313
I6205
sI314
I2657
sI315
I8490
sI316
I770
sI317
I7691
sI318
I331
sI319
I12614
sI320
I3267
sI321
I2138
sI322
I5222
sI323
I5794
sI324
I2216
sI325
I764
sI326
I9587
sI327
I100
sI328
I1396
sI329
I17519
sI330
I700
sI331
I430
sI332
I4936
sI333
I3688
sI334
I432
sI335
I420
sI336
I12615
sI337
I4848
sI338
I513
sI339
I4059
sI340
I12639
sI341
I12276
sI342
I12276
sI343
I3049
sI344
I2932
sI345
I8818
sI346
I5921
sI347
I5921
sI348
I2932
sI349
I1896
sI350
I23335
sI351
I2224
sI352
I6940
sI353
I2968
sI354
I10150
sI355
I1896
sI356
I2286
sI357
I7479
sI358
I3510
sI359
I15300
sI360
I593
sI361
I5553
sI362
I2084
sI363
I3755
sI364
I6909
sI365
I6494
sI366
I1800
sI367
I10186
sI368
I1963
sI369
I581
sI370
I3750
sI371
I482
sI372
I3014
sI373
I4450
sI374
I2320
sI375
I7641
sI376
I2030
sI377
I7641
sI378
I3014
sI379
I368
sI380
I2077
sI381
I337
sI382
I802
sI383
I14456
sI384
I339
sI385
I11543
sI386
I1056
sI387
I1475
sI388
I1366
sI389
I795
sI390
I1157
sI391
I4183
sI392
I5410
sI393
I1735
sI394
I141
sI395
I4843
sI396
I3042
sI397
I2497
sI398
I667
sI399
I8235
sI400
I8235
sI401
I310
sI402
I1378
sI403
I1135
sI404
I3728
sI405
I520
sI406
I829
sI407
I11324
sI408
I4066
sI409
I1916
sI410
I382
sI411
I267
sI412
I3165
sI413
I7039
sI414
I588
sI415
I7641
sI416
I2417
sI417
I5158
sI418
I10813
sI419
I3368
sI420
I8272
sI421
I7449
sI422
I7449
sI423
I829
sI424
I7628
sI425
I5801
sI426
I2010
sI427
I9506
sI428
I7509
sI429
I5315
sI430
I2408
sI431
I7173
sI432
I14235
sI433
I4273
sI434
I8427
sI435
I2932
sI436
I4097
sI437
I6904
sI438
I3693
sI439
I10154
sI440
I1055
sI441
I6047
sI442
I1105
sI443
I2564
sI444
I13995
sI445
I553
sI446
I9980
sI447
I9980
sI448
I8164
sI449
I146
sI450
I1576
sI451
I480
sI452
I2014
sI453
I3880
sI454
I18524
sI455
I3871
sI456
I1491
sI457
I2736
sI458
I6606
sI459
I326
sI460
I340
sI461
I483
sI462
I9099
sI463
I11833
sI464
I3688
sI465
I791
sI466
I1239
sI467
I3117
sI468
I330
sI469
I1169
sI470
I1439
sI471
I5675
sI472
I6330
sI473
I16228
sI474
I19090
sI475
I16031
sI476
I4965
sI477
I14061
sI478
I3400
sI479
I4167
sI480
I2037
sI481
I2037
sI482
I1448
sI483
I1730
sI484
I134
sI485
I603
sI486
I5339
sI487
I119
sI488
I2016
sI489
I45
sI490
I4488
sI491
I1247
sI492
I1944
sI493
I1410
sI494
I1168
sI495
I6391
sI496
I4748
sI497
I4748
sI498
I1275
sI499
I7054
sI500
I907
sI501
I929
sI502
I9398
sI503
I1505
sI504
I410
sI505
I527
sI506
I746
sI507
I120
sI508
I192
sI509
I382
sI510
I156
sI511
I68
sI512
I609
sI513
I383
sI514
I2271
sI515
I2346
sI516
I4951
sI517
I3439
sI518
I1079
sI519
I10271
sI520
I5454
sI521
I226
sI522
I5454
sI523
I3138
sI524
I95
sI525
I1743
sI526
I370
sI527
I231
sI528
I3468
sI529
I9162
sI530
I2489
sI531
I16833
sI532
I499
sI533
I981
sI534
I1710
sI535
I1123
sI536
I1667
sI537
I366
sI538
I353
sI539
I11540
sI540
I6897
sI541
I2237
sI542
I2237
sI543
I327
sI544
I5506
sI545
I3772
sI546
I2991
sI547
I6258
sI548
I3812
sI549
I4292
sI550
I4292
sI551
I3049
sI552
I10186
sI553
I969
sI554
I683
sI555
I1778
sI556
I1933
sI557
I16868
sI558
I889
sI559
I1957
sI560
I318
sI561
I1464
sI562
I390
sI563
I1551
sI564
I5913
sI565
I7527
sI566
I2496
sI567
I1104
sI568
I2190
sI569
I448
sI570
I1048
sI571
I5454
sI572
I4016
sI573
I4749
sI574
I2556
sI575
I4964
sI576
I8410
sI577
I5921
sI578
I168
sI579
I3608
sI580
I521
sI581
I1256
sI582
I6909
sI583
I476
sI584
I4107
sI585
I4107
sI586
I900
sI587
I13410
sI588
I18715
sI589
I5257
sI590
I891
sI591
I4875
sI592
I2124
sI593
I1479
sI594
I6895
sI595
I513
sI596
I10197
sI597
I724
sI598
I2153
sI599
I2145
sI600
I742
sI601
I4016
sI602
I6563
sI603
I16279
sI604
I4407
sI605
I13160
sI606
I4792
sI607
I3423
sI608
I1710
sI609
I10054
sI610
I1138
sI611
I1241
sI612
I532
sI613
I9894
sI614
I4763
sI615
I629
sI616
I10776
sI617
I1539
sI618
I301
sI619
I2444
sI620
I700
sI621
I632
sI622
I2092
sI623
I797
sI624
I1538
sI625
I8843
sI626
I1027
sI627
I1156
sI628
I4172
sI629
I1352
sI630
I90
sI631
I4461
sI632
I6828
sI633
I6828
sI634
I3174
sI635
I1180
sI636
I496
sI637
I11926
sI638
I508
sI639
I1838
sI640
I869
sI641
I1842
sI642
I5708
sI643
I2226
sI644
I3359
sI645
I1225
sI646
I9662
sI647
I519
sI648
I2075
sI649
I4407
sI650
I15719
sI651
I387
sI652
I2220
sI653
I8517
sI654
I5126
sI655
I9720
sI656
I5160
sI657
I7486
sI658
I789
sI659
I12911
sI660
I522
sI661
I21284
sI662
I10557
sI663
I22044
sI664
I4451
sI665
I1455
sI666
I1432
sI667
I1155
sI668
I2300
sI669
I21565
sI670
I10586
sI671
I2477
sI672
I1770
sI673
I4592
sI674
I4592
sI675
I8063
sI676
I1229
sI677
I1003
sI678
I4648
sI679
I695
sI680
I8820
sI681
I629
sI682
I1345
sI683
I2276
sI684
I1352
sI685
I1897
sI686
I6173
sI687
I216
sI688
I9373
sI689
I2684
sI690
I3245
sI691
I2158
sI692
I10192
sI693
I8675
sI694
I4898
sI695
I1004
sI696
I62
sI697
I12000
sI698
I12000
sI699
I2449
sI700
I2107
sI701
I2107
sI702
I10881
sI703
I2590
sI704
I4444
sI705
I610
sI706
I53
sI707
I2576
sI708
I6445
sI709
I618
sI710
I2518
sI711
I807
sI712
I248
sI713
I4736
sI714
I750
sI715
I2058
sI716
I4172
sI717
I711
sI718
I4012
sI719
I3075
sI720
I356
sI721
I1179
sI722
I3392
sI723
I1705
sI724
I4832
sI725
I2186
sI726
I609
sI727
I300
sI728
I131
sI729
I88
sI730
I1360
sI731
I168
sI732
I250
sI733
I812
sI734
I682
sI735
I932
sI736
I2571
sI737
I376
sI738
I2812
sI739
I1046
sI740
I1325
sI741
I148
sI742
I162
sI743
I4366
sI744
I1307
sI745
I4028
sI746
I2961
sI747
I7420
sI748
I1691
sI749
I62
sI750
I394
sI751
I10881
sI752
I2911
sI753
I473
sI754
I1143
sI755
I1324
sI756
I773
sI757
I226
sI758
I1467
sI759
I1078
sI760
I1156
sI761
I2430
sI762
I306
sI763
I396
sI764
I2658
sI765
I1401
sI766
I1524
sI767
I2626
sI768
I3679
sI769
I5567
sI770
I9280
sI771
I14476
sI772
I2597
sI773
I455
sI774
I2678
sI775
I2663
sI776
I12974
sI777
I416
sI778
I975
sI779
I329
sI780
I5189
sI781
I7209
sI782
I760
sI783
I704
sI784
I1469
sI785
I2042
sI786
I5784
sI787
I2864
sI788
I260
sI789
I1454
sI790
I3295
sI791
I11791
sI792
I4398
sI793
I9647
sI794
I8843
sI795
I7150
sI796
I2193
sI797
I1334
sI798
I2588
sI799
I7172
sI800
I1165
sI801
I6175
sI802
I1900
sI803
I8517
sI804
I7578
sI805
I506
sI806
I7864
sI807
I7864
sI808
I1725
sI809
I5656
sI810
I995
sI811
I9368
sI812
I18221
sI813
I1832
sI814
I2948
sI815
I96
sI816
I1004
sI817
I3687
sI818
I1326
sI819
I9651
sI820
I10615
sI821
I340
sI822
I9853
sI823
I2960
sI824
I1734
sI825
I4574
sI826
I11022
sI827
I5245
sI828
I3361
sI829
I5250
sI830
I2270
sI831
I1799
sI832
I8543
sI833
I11491
sI834
I3635
sI835
I3623
sI836
I3267
sI837
I3874
sI838
I1990
sI839
I2138
sI840
I2502
sI841
I4012
sI842
I3903
sI843
I3807
sI844
I514
sI845
I2245
sI846
I2998
sI847
I53
sI848
I559
sI849
I4458
sI850
I4332
sI851
I892
sI852
I3807
sI853
I6279
sI854
I3428
sI855
I937
sI856
I5092
sI857
I8154
sI858
I2961
sI859
I10986
sI860
I430
sI861
I2153
sI862
I4596
sI863
I3120
sI864
I1666
sI865
I87
sI866
I308
sI867
I337
sI868
I7945
sI869
I606
sI870
I209
sI871
I1504
sI872
I1606
sI873
I5061
sI874
I4336
sI875
I4336
sI876
I781
sI877
I989
sI878
I316
sI879
I709
sI880
I4282
sI881
I5230
sI882
I1529
sI883
I671
sI884
I5933
sI885
I11984
sI886
I752
sI887
I15491
sI888
I890
sI889
I1619
sI890
I1348
sI891
I827
sI892
I3922
sI893
I1164
sI894
I3990
sI895
I4138
sI896
I524
sI897
I2410
sI898
I1724
sI899
I2391
sI900
I6564
sI901
I6564
sI902
I2379
sI903
I9757
sI904
I9728
sI905
I4622
sI906
I3501
sI907
I5249
sI908
I3586
sI909
I4106
sI910
I5292
sI911
I8828
sI912
I5705
sI913
I9009
sI914
I5850
sI915
I703
sI916
I3716
sI917
I460
sI918
I4994
sI919
I3199
sI920
I6930
sI921
I2200
sI922
I14891
sI923
I1605
sI924
I20207
sI925
I2629
sI926
I717
sI927
I1605
sI928
I5812
sI929
I251
sI930
I20724
sI931
I2527
sI932
I6497
sI933
I1012
sI934
I941
sI935
I5129
sI936
I1251
sI937
I8220
sI938
I7162
sI939
I592
sI940
I2565
sI941
I2774
sI942
I2527
sI943
I1012
sI944
I4928
sI945
I2370
sI946
I2237
sI947
I1858
sI948
I251
sI949
I2334
sI950
I1355
sI951
I848
sI952
I1821
sI953
I6266
sI954
I2783
sI955
I2219
sI956
I280
sI957
I663
sI958
I9700
sI959
I1764
sI960
I4189
sI961
I1429
sI962
I2614
sI963
I4401
sI964
I2589
sI965
I3196
sI966
I3640
sI967
I7693
sI968
I1481
sI969
I3927
sI970
I2381
sI971
I54
sI972
I3998
sI973
I1942
sI974
I3410
sI975
I10989
sI976
I4708
sI977
I2809
sI978
I518
sI979
I10989
sI980
I3603
sI981
I1166
sI982
I1937
sI983
I5406
sI984
I2617
sI985
I2429
sI986
I5928
sI987
I119
sI988
I202
sI989
I4242
sI990
I9585
sI991
I11008
sI992
I1438
s.