ccollections
OrderedDict
p0
((lp1
(lp2
S'C:/Users/Tanvi/Desktop/HW4_Tanvi_Ranadive/Corpus/10025renewableenergy.txt'
p3
aI1
aa(lp4
S'C:/Users/Tanvi/Desktop/HW4_Tanvi_Ranadive/Corpus/1973oilcrisis.txt'
p5
aI2
aa(lp6
S'C:/Users/Tanvi/Desktop/HW4_Tanvi_Ranadive/Corpus/1979energycrisis.txt'
p7
aI3
aa(lp8
S'C:/Users/Tanvi/Desktop/HW4_Tanvi_Ranadive/Corpus/2000wattsociety.txt'
p9
aI4
aa(lp10
S'C:/Users/Tanvi/Desktop/HW4_Tanvi_Ranadive/Corpus/3Degrees.txt'
p11
aI5
aa(lp12
S'C:/Users/Tanvi/Desktop/HW4_Tanvi_Ranadive/Corpus/80Plus.txt'
p13
aI6
aa(lp14
S'C:/Users/Tanvi/Desktop/HW4_Tanvi_Ranadive/Corpus/88888LightsOut.txt'
p15
aI7
aa(lp16
S'C:/Users/Tanvi/Desktop/HW4_Tanvi_Ranadive/Corpus/Absorptionchiller.txt'
p17
aI8
aa(lp18
S'C:/Users/Tanvi/Desktop/HW4_Tanvi_Ranadive/Corpus/Absorptionrefrigerator.txt'
p19
aI9
aa(lp20
S'C:/Users/Tanvi/Desktop/HW4_Tanvi_Ranadive/Corpus/ACpower.txt'
p21
aI10
aa(lp22
S'C:/Users/Tanvi/Desktop/HW4_Tanvi_Ranadive/Corpus/Actinide.txt'
p23
aI11
aa(lp24
S'C:/Users/Tanvi/Desktop/HW4_Tanvi_Ranadive/Corpus/Aerodynamics.txt'
p25
aI12
aa(lp26
S'C:/Users/Tanvi/Desktop/HW4_Tanvi_Ranadive/Corpus/Africa.txt'
p27
aI13
aa(lp28
S'C:/Users/Tanvi/Desktop/HW4_Tanvi_Ranadive/Corpus/Agenda21.txt'
p29
aI14
aa(lp30
S'C:/Users/Tanvi/Desktop/HW4_Tanvi_Ranadive/Corpus/AGMbattery.txt'
p31
aI15
aa(lp32
S'C:/Users/Tanvi/Desktop/HW4_Tanvi_Ranadive/Corpus/Agriculturalwastewatertreatment.txt'
p33
aI16
aa(lp34
S'C:/Users/Tanvi/Desktop/HW4_Tanvi_Ranadive/Corpus/AguC3A7adoraWavePark.txt'
p35
aI17
aa(lp36
S'C:/Users/Tanvi/Desktop/HW4_Tanvi_Ranadive/Corpus/AintreeMotorRacingCircuit.txt'
p37
aI18
aa(lp38
S'C:/Users/Tanvi/Desktop/HW4_Tanvi_Ranadive/Corpus/Airconditioning.txt'
p39
aI19
aa(lp40
S'C:/Users/Tanvi/Desktop/HW4_Tanvi_Ranadive/Corpus/Airseparation.txt'
p41
aI20
aa(lp42
S'C:/Users/Tanvi/Desktop/HW4_Tanvi_Ranadive/Corpus/Algaefuel.txt'
p43
aI21
aa(lp44
S'C:/Users/Tanvi/Desktop/HW4_Tanvi_Ranadive/Corpus/AlliancetoSaveEnergy.txt'
p45
aI22
aa(lp46
S'C:/Users/Tanvi/Desktop/HW4_Tanvi_Ranadive/Corpus/AltaWindEnergyCenter.txt'
p47
aI23
aa(lp48
S'C:/Users/Tanvi/Desktop/HW4_Tanvi_Ranadive/Corpus/Alternativeenergy.txt'
p49
aI24
aa(lp50
S'C:/Users/Tanvi/Desktop/HW4_Tanvi_Ranadive/Corpus/Alternativefuel.txt'
p51
aI25
aa(lp52
S'C:/Users/Tanvi/Desktop/HW4_Tanvi_Ranadive/Corpus/Alternativefuels.txt'
p53
aI26
aa(lp54
S'C:/Users/Tanvi/Desktop/HW4_Tanvi_Ranadive/Corpus/AmericanCouncilforanEnergyEfficientEconomy.txt'
p55
aI27
aa(lp56
S'C:/Users/Tanvi/Desktop/HW4_Tanvi_Ranadive/Corpus/AmericanPhysicalSociety.txt'
p57
aI28
aa(lp58
S'C:/Users/Tanvi/Desktop/HW4_Tanvi_Ranadive/Corpus/Anaerobicdigestion.txt'
p59
aI29
aa(lp60
S'C:/Users/Tanvi/Desktop/HW4_Tanvi_Ranadive/Corpus/Animalwaste.txt'
p61
aI30
aa(lp62
S'C:/Users/Tanvi/Desktop/HW4_Tanvi_Ranadive/Corpus/Annualfuelutilizationefficiency.txt'
p63
aI31
aa(lp64
S'C:/Users/Tanvi/Desktop/HW4_Tanvi_Ranadive/Corpus/Anthropization.txt'
p65
aI32
aa(lp66
S'C:/Users/Tanvi/Desktop/HW4_Tanvi_Ranadive/Corpus/Anticonsumerism.txt'
p67
aI33
aa(lp68
S'C:/Users/Tanvi/Desktop/HW4_Tanvi_Ranadive/Corpus/AppliedEnergy.txt'
p69
aI34
aa(lp70
S'C:/Users/Tanvi/Desktop/HW4_Tanvi_Ranadive/Corpus/Appropriatetechnology.txt'
p71
aI35
aa(lp72
S'C:/Users/Tanvi/Desktop/HW4_Tanvi_Ranadive/Corpus/AquaticSpeciesProgram.txt'
p73
aI36
aa(lp74
S'C:/Users/Tanvi/Desktop/HW4_Tanvi_Ranadive/Corpus/Artificialphotosynthesis.txt'
p75
aI37
aa(lp76
S'C:/Users/Tanvi/Desktop/HW4_Tanvi_Ranadive/Corpus/AshdenAward.txt'
p77
aI38
aa(lp78
S'C:/Users/Tanvi/Desktop/HW4_Tanvi_Ranadive/Corpus/AstonMartin.txt'
p79
aI39
aa(lp80
S'C:/Users/Tanvi/Desktop/HW4_Tanvi_Ranadive/Corpus/Atmosphericdispersionmodeling.txt'
p81
aI40
aa(lp82
S'C:/Users/Tanvi/Desktop/HW4_Tanvi_Ranadive/Corpus/Audi.txt'
p83
aI41
aa(lp84
S'C:/Users/Tanvi/Desktop/HW4_Tanvi_Ranadive/Corpus/Australiannationalgovernment.txt'
p85
aI42
aa(lp86
S'C:/Users/Tanvi/Desktop/HW4_Tanvi_Ranadive/Corpus/AutosportInternational.txt'
p87
aI43
aa(lp88
S'C:/Users/Tanvi/Desktop/HW4_Tanvi_Ranadive/Corpus/Availabilityfactor.txt'
p89
aI44
aa(lp90
S'C:/Users/Tanvi/Desktop/HW4_Tanvi_Ranadive/Corpus/BabatundeFashola.txt'
p91
aI45
aa(lp92
S'C:/Users/Tanvi/Desktop/HW4_Tanvi_Ranadive/Corpus/BadenWC3BCrttemberg.txt'
p93
aI46
aa(lp94
S'C:/Users/Tanvi/Desktop/HW4_Tanvi_Ranadive/Corpus/Bamboo.txt'
p95
aI47
aa(lp96
S'C:/Users/Tanvi/Desktop/HW4_Tanvi_Ranadive/Corpus/BanguiWindFarm.txt'
p97
aI48
aa(lp98
S'C:/Users/Tanvi/Desktop/HW4_Tanvi_Ranadive/Corpus/BARDOffshore1.txt'
p99
aI49
aa(lp100
S'C:/Users/Tanvi/Desktop/HW4_Tanvi_Ranadive/Corpus/Baseloadpowerplant.txt'
p101
aI50
aa(lp102
S'C:/Users/Tanvi/Desktop/HW4_Tanvi_Ranadive/Corpus/Batteryelectricity.txt'
p103
aI51
aa(lp104
S'C:/Users/Tanvi/Desktop/HW4_Tanvi_Ranadive/Corpus/Batteryelectricvehicle.txt'
p105
aI52
aa(lp106
S'C:/Users/Tanvi/Desktop/HW4_Tanvi_Ranadive/Corpus/Behaviourchange.txt'
p107
aI53
aa(lp108
S'C:/Users/Tanvi/Desktop/HW4_Tanvi_Ranadive/Corpus/BillGates.txt'
p109
aI54
aa(lp110
S'C:/Users/Tanvi/Desktop/HW4_Tanvi_Ranadive/Corpus/Bioalcohol.txt'
p111
aI55
aa(lp112
S'C:/Users/Tanvi/Desktop/HW4_Tanvi_Ranadive/Corpus/Biochar.txt'
p113
aI56
aa(lp114
S'C:/Users/Tanvi/Desktop/HW4_Tanvi_Ranadive/Corpus/Biodiesel.txt'
p115
aI57
aa(lp116
S'C:/Users/Tanvi/Desktop/HW4_Tanvi_Ranadive/Corpus/Biodiversity.txt'
p117
aI58
aa(lp118
S'C:/Users/Tanvi/Desktop/HW4_Tanvi_Ranadive/Corpus/Bioenergy.txt'
p119
aI59
aa(lp120
S'C:/Users/Tanvi/Desktop/HW4_Tanvi_Ranadive/Corpus/Bioenergywithcarboncaptureandstorage.txt'
p121
aI60
aa(lp122
S'C:/Users/Tanvi/Desktop/HW4_Tanvi_Ranadive/Corpus/Biofuel.txt'
p123
aI61
aa(lp124
S'C:/Users/Tanvi/Desktop/HW4_Tanvi_Ranadive/Corpus/Biogas.txt'
p125
aI62
aa(lp126
S'C:/Users/Tanvi/Desktop/HW4_Tanvi_Ranadive/Corpus/Biomass.txt'
p127
aI63
aa(lp128
S'C:/Users/Tanvi/Desktop/HW4_Tanvi_Ranadive/Corpus/Biomassbriquettes.txt'
p129
aI64
aa(lp130
S'C:/Users/Tanvi/Desktop/HW4_Tanvi_Ranadive/Corpus/Biomassgasification.txt'
p131
aI65
aa(lp132
S'C:/Users/Tanvi/Desktop/HW4_Tanvi_Ranadive/Corpus/Biomasspower.txt'
p133
aI66
aa(lp134
S'C:/Users/Tanvi/Desktop/HW4_Tanvi_Ranadive/Corpus/Biomaterial.txt'
p135
aI67
aa(lp136
S'C:/Users/Tanvi/Desktop/HW4_Tanvi_Ranadive/Corpus/Biorefinery.txt'
p137
aI68
aa(lp138
S'C:/Users/Tanvi/Desktop/HW4_Tanvi_Ranadive/Corpus/Biosecurity.txt'
p139
aI69
aa(lp140
S'C:/Users/Tanvi/Desktop/HW4_Tanvi_Ranadive/Corpus/Biosphere.txt'
p141
aI70
aa(lp142
S'C:/Users/Tanvi/Desktop/HW4_Tanvi_Ranadive/Corpus/Birthcontrol.txt'
p143
aI71
aa(lp144
S'C:/Users/Tanvi/Desktop/HW4_Tanvi_Ranadive/Corpus/Blackstart.txt'
p145
aI72
aa(lp146
S'C:/Users/Tanvi/Desktop/HW4_Tanvi_Ranadive/Corpus/Bloodpressure.txt'
p147
aI73
aa(lp148
S'C:/Users/Tanvi/Desktop/HW4_Tanvi_Ranadive/Corpus/BloombergLP.txt'
p149
aI74
aa(lp150
S'C:/Users/Tanvi/Desktop/HW4_Tanvi_Ranadive/Corpus/Boiler.txt'
p151
aI75
aa(lp152
S'C:/Users/Tanvi/Desktop/HW4_Tanvi_Ranadive/Corpus/Bottomingcycle.txt'
p153
aI76
aa(lp154
S'C:/Users/Tanvi/Desktop/HW4_Tanvi_Ranadive/Corpus/Braytoncycle.txt'
p155
aI77
aa(lp156
S'C:/Users/Tanvi/Desktop/HW4_Tanvi_Ranadive/Corpus/Brazil.txt'
p157
aI78
aa(lp158
S'C:/Users/Tanvi/Desktop/HW4_Tanvi_Ranadive/Corpus/Brownoutelectricity.txt'
p159
aI79
aa(lp160
S'C:/Users/Tanvi/Desktop/HW4_Tanvi_Ranadive/Corpus/BrundtlandCommission.txt'
p161
aI80
aa(lp162
S'C:/Users/Tanvi/Desktop/HW4_Tanvi_Ranadive/Corpus/BuildingCodesAssistanceProject.txt'
p163
aI81
aa(lp164
S'C:/Users/Tanvi/Desktop/HW4_Tanvi_Ranadive/Corpus/BuildingEnergyCodesProgram.txt'
p165
aI82
aa(lp166
S'C:/Users/Tanvi/Desktop/HW4_Tanvi_Ranadive/Corpus/Buildingenergyrating.txt'
p167
aI83
aa(lp168
S'C:/Users/Tanvi/Desktop/HW4_Tanvi_Ranadive/Corpus/Buildingenergysimulation.txt'
p169
aI84
aa(lp170
S'C:/Users/Tanvi/Desktop/HW4_Tanvi_Ranadive/Corpus/BuildingInformationModeling.txt'
p171
aI85
aa(lp172
S'C:/Users/Tanvi/Desktop/HW4_Tanvi_Ranadive/Corpus/Buildinginsulation.txt'
p173
aI86
aa(lp174
S'C:/Users/Tanvi/Desktop/HW4_Tanvi_Ranadive/Corpus/Buildingintegratedphotovoltaics.txt'
p175
aI87
aa(lp176
S'C:/Users/Tanvi/Desktop/HW4_Tanvi_Ranadive/Corpus/Buildingperformance.txt'
p177
aI88
aa(lp178
S'C:/Users/Tanvi/Desktop/HW4_Tanvi_Ranadive/Corpus/BureauofEnergyEfficiency.txt'
p179
aI89
aa(lp180
S'C:/Users/Tanvi/Desktop/HW4_Tanvi_Ranadive/Corpus/C2A3.txt'
p181
aI90
aa(lp182
S'C:/Users/Tanvi/Desktop/HW4_Tanvi_Ranadive/Corpus/California.txt'
p183
aI91
aa(lp184
S'C:/Users/Tanvi/Desktop/HW4_Tanvi_Ranadive/Corpus/Caltech.txt'
p185
aI92
aa(lp186
S'C:/Users/Tanvi/Desktop/HW4_Tanvi_Ranadive/Corpus/CamarilloCalifornia.txt'
p187
aI93
aa(lp188
S'C:/Users/Tanvi/Desktop/HW4_Tanvi_Ranadive/Corpus/CambridgeMassachusetts.txt'
p189
aI94
aa(lp190
S'C:/Users/Tanvi/Desktop/HW4_Tanvi_Ranadive/Corpus/Capacityfactor.txt'
p191
aI95
aa(lp192
S'C:/Users/Tanvi/Desktop/HW4_Tanvi_Ranadive/Corpus/Carboncapture.txt'
p193
aI96
aa(lp194
S'C:/Users/Tanvi/Desktop/HW4_Tanvi_Ranadive/Corpus/Carboncaptureandstorage.txt'
p195
aI97
aa(lp196
S'C:/Users/Tanvi/Desktop/HW4_Tanvi_Ranadive/Corpus/Carboncredit.txt'
p197
aI98
aa(lp198
S'C:/Users/Tanvi/Desktop/HW4_Tanvi_Ranadive/Corpus/Carbondiet.txt'
p199
aI99
aa(lp200
S'C:/Users/Tanvi/Desktop/HW4_Tanvi_Ranadive/Corpus/Carbondioxide.txt'
p201
aI100
aa(lp202
S'C:/Users/Tanvi/Desktop/HW4_Tanvi_Ranadive/Corpus/Carbondioxideemissions.txt'
p203
aI101
aa(lp204
S'C:/Users/Tanvi/Desktop/HW4_Tanvi_Ranadive/Corpus/Carbondioxiderecycling.txt'
p205
aI102
aa(lp206
S'C:/Users/Tanvi/Desktop/HW4_Tanvi_Ranadive/Corpus/Carbondioxideremoval.txt'
p207
aI103
aa(lp208
S'C:/Users/Tanvi/Desktop/HW4_Tanvi_Ranadive/Corpus/Carbonemissiontrading.txt'
p209
aI104
aa(lp210
S'C:/Users/Tanvi/Desktop/HW4_Tanvi_Ranadive/Corpus/Carbonfinance.txt'
p211
aI105
aa(lp212
S'C:/Users/Tanvi/Desktop/HW4_Tanvi_Ranadive/Corpus/Carbonfootprint.txt'
p213
aI106
aa(lp214
S'C:/Users/Tanvi/Desktop/HW4_Tanvi_Ranadive/Corpus/Carbonicacid.txt'
p215
aI107
aa(lp216
S'C:/Users/Tanvi/Desktop/HW4_Tanvi_Ranadive/Corpus/Carbonnegativefuel.txt'
p217
aI108
aa(lp218
S'C:/Users/Tanvi/Desktop/HW4_Tanvi_Ranadive/Corpus/Carbonneutral.txt'
p219
aI109
aa(lp220
S'C:/Users/Tanvi/Desktop/HW4_Tanvi_Ranadive/Corpus/Carbonneutralfuel.txt'
p221
aI110
aa(lp222
S'C:/Users/Tanvi/Desktop/HW4_Tanvi_Ranadive/Corpus/Carbonneutrality.txt'
p223
aI111
aa(lp224
S'C:/Users/Tanvi/Desktop/HW4_Tanvi_Ranadive/Corpus/Carbonoffset.txt'
p225
aI112
aa(lp226
S'C:/Users/Tanvi/Desktop/HW4_Tanvi_Ranadive/Corpus/Carbonpricing.txt'
p227
aI113
aa(lp228
S'C:/Users/Tanvi/Desktop/HW4_Tanvi_Ranadive/Corpus/CarbonRecyclingInternational.txt'
p229
aI114
aa(lp230
S'C:/Users/Tanvi/Desktop/HW4_Tanvi_Ranadive/Corpus/Carbontax.txt'
p231
aI115
aa(lp232
S'C:/Users/Tanvi/Desktop/HW4_Tanvi_Ranadive/Corpus/Carbontaxes.txt'
p233
aI116
aa(lp234
S'C:/Users/Tanvi/Desktop/HW4_Tanvi_Ranadive/Corpus/Carnot27stheoremthermodynamics.txt'
p235
aI117
aa(lp236
S'C:/Users/Tanvi/Desktop/HW4_Tanvi_Ranadive/Corpus/Carnotcycle.txt'
p237
aI118
aa(lp238
S'C:/Users/Tanvi/Desktop/HW4_Tanvi_Ranadive/Corpus/Carnotmethod.txt'
p239
aI119
aa(lp240
S'C:/Users/Tanvi/Desktop/HW4_Tanvi_Ranadive/Corpus/Cellulosicethanol.txt'
p241
aI120
aa(lp242
S'C:/Users/Tanvi/Desktop/HW4_Tanvi_Ranadive/Corpus/Celsius.txt'
p243
aI121
aa(lp244
S'C:/Users/Tanvi/Desktop/HW4_Tanvi_Ranadive/Corpus/CenterforSustainableEnergyFarming.txt'
p245
aI122
aa(lp246
S'C:/Users/Tanvi/Desktop/HW4_Tanvi_Ranadive/Corpus/ChamberofCommerce.txt'
p247
aI123
aa(lp248
S'C:/Users/Tanvi/Desktop/HW4_Tanvi_Ranadive/Corpus/CharlesGordonLennoxEarlofMarchandKinrara.txt'
p249
aI124
aa(lp250
S'C:/Users/Tanvi/Desktop/HW4_Tanvi_Ranadive/Corpus/Chemicalindustry.txt'
p251
aI125
aa(lp252
S'C:/Users/Tanvi/Desktop/HW4_Tanvi_Ranadive/Corpus/Chemicalsubstance.txt'
p253
aI126
aa(lp254
S'C:/Users/Tanvi/Desktop/HW4_Tanvi_Ranadive/Corpus/Chernobyldisaster.txt'
p255
aI127
aa(lp256
S'C:/Users/Tanvi/Desktop/HW4_Tanvi_Ranadive/Corpus/Childdevelopment.txt'
p257
aI128
aa(lp258
S'C:/Users/Tanvi/Desktop/HW4_Tanvi_Ranadive/Corpus/CHPDirective.txt'
p259
aI129
aa(lp260
S'C:/Users/Tanvi/Desktop/HW4_Tanvi_Ranadive/Corpus/Christie27s.txt'
p261
aI130
aa(lp262
S'C:/Users/Tanvi/Desktop/HW4_Tanvi_Ranadive/Corpus/Cleancoaltechnology.txt'
p263
aI131
aa(lp264
S'C:/Users/Tanvi/Desktop/HW4_Tanvi_Ranadive/Corpus/Cleanenergy.txt'
p265
aI132
aa(lp266
S'C:/Users/Tanvi/Desktop/HW4_Tanvi_Ranadive/Corpus/Cleantechnology.txt'
p267
aI133
aa(lp268
S'C:/Users/Tanvi/Desktop/HW4_Tanvi_Ranadive/Corpus/Climate.txt'
p269
aI134
aa(lp270
S'C:/Users/Tanvi/Desktop/HW4_Tanvi_Ranadive/Corpus/Climatechange.txt'
p271
aI135
aa(lp272
S'C:/Users/Tanvi/Desktop/HW4_Tanvi_Ranadive/Corpus/Climatechangemitigation.txt'
p273
aI136
aa(lp274
S'C:/Users/Tanvi/Desktop/HW4_Tanvi_Ranadive/Corpus/ClintonClimateInitiative.txt'
p275
aI137
aa(lp276
S'C:/Users/Tanvi/Desktop/HW4_Tanvi_Ranadive/Corpus/Clothesdryer.txt'
p277
aI138
aa(lp278
S'C:/Users/Tanvi/Desktop/HW4_Tanvi_Ranadive/Corpus/Clothesline.txt'
p279
aI139
aa(lp280
S'C:/Users/Tanvi/Desktop/HW4_Tanvi_Ranadive/Corpus/ClydeWindFarm.txt'
p281
aI140
aa(lp282
S'C:/Users/Tanvi/Desktop/HW4_Tanvi_Ranadive/Corpus/Coal.txt'
p283
aI141
aa(lp284
S'C:/Users/Tanvi/Desktop/HW4_Tanvi_Ranadive/Corpus/Coefficientofperformance.txt'
p285
aI142
aa(lp286
S'C:/Users/Tanvi/Desktop/HW4_Tanvi_Ranadive/Corpus/Cogeneration.txt'
p287
aI143
aa(lp288
S'C:/Users/Tanvi/Desktop/HW4_Tanvi_Ranadive/Corpus/COGENEurope.txt'
p289
aI144
aa(lp290
S'C:/Users/Tanvi/Desktop/HW4_Tanvi_Ranadive/Corpus/ColumbiaSouthCarolina.txt'
p291
aI145
aa(lp292
S'C:/Users/Tanvi/Desktop/HW4_Tanvi_Ranadive/Corpus/Combinedcycle.txt'
p293
aI146
aa(lp294
S'C:/Users/Tanvi/Desktop/HW4_Tanvi_Ranadive/Corpus/Commoncarrier.txt'
p295
aI147
aa(lp296
S'C:/Users/Tanvi/Desktop/HW4_Tanvi_Ranadive/Corpus/Commonwealth.txt'
p297
aI148
aa(lp298
S'C:/Users/Tanvi/Desktop/HW4_Tanvi_Ranadive/Corpus/CommunityChoiceAggregation.txt'
p299
aI149
aa(lp300
S'C:/Users/Tanvi/Desktop/HW4_Tanvi_Ranadive/Corpus/Compactfluorescentlamp.txt'
p301
aI150
aa(lp302
S'C:/Users/Tanvi/Desktop/HW4_Tanvi_Ranadive/Corpus/Compactfluorescentlights.txt'
p303
aI151
aa(lp304
S'C:/Users/Tanvi/Desktop/HW4_Tanvi_Ranadive/Corpus/Compositematerials.txt'
p305
aI152
aa(lp306
S'C:/Users/Tanvi/Desktop/HW4_Tanvi_Ranadive/Corpus/Compressedair.txt'
p307
aI153
aa(lp308
S'C:/Users/Tanvi/Desktop/HW4_Tanvi_Ranadive/Corpus/Compressedairenergystorage.txt'
p309
aI154
aa(lp310
S'C:/Users/Tanvi/Desktop/HW4_Tanvi_Ranadive/Corpus/Compressednaturalgas.txt'
p311
aI155
aa(lp312
S'C:/Users/Tanvi/Desktop/HW4_Tanvi_Ranadive/Corpus/Compressors.txt'
p313
aI156
aa(lp314
S'C:/Users/Tanvi/Desktop/HW4_Tanvi_Ranadive/Corpus/Concentratedsolarpower.txt'
p315
aI157
aa(lp316
S'C:/Users/Tanvi/Desktop/HW4_Tanvi_Ranadive/Corpus/Condenserheattransfer.txt'
p317
aI158
aa(lp318
S'C:/Users/Tanvi/Desktop/HW4_Tanvi_Ranadive/Corpus/Condensingboiler.txt'
p319
aI159
aa(lp320
S'C:/Users/Tanvi/Desktop/HW4_Tanvi_Ranadive/Corpus/Conservationbiology.txt'
p321
aI160
aa(lp322
S'C:/Users/Tanvi/Desktop/HW4_Tanvi_Ranadive/Corpus/Conservationethic.txt'
p323
aI161
aa(lp324
S'C:/Users/Tanvi/Desktop/HW4_Tanvi_Ranadive/Corpus/Conservationofenergy.txt'
p325
aI162
aa(lp326
S'C:/Users/Tanvi/Desktop/HW4_Tanvi_Ranadive/Corpus/ConsolidatedEdison.txt'
p327
aI163
aa(lp328
S'C:/Users/Tanvi/Desktop/HW4_Tanvi_Ranadive/Corpus/ConsortiumforEnergyEfficiency.txt'
p329
aI164
aa(lp330
S'C:/Users/Tanvi/Desktop/HW4_Tanvi_Ranadive/Corpus/Consumer.txt'
p331
aI165
aa(lp332
S'C:/Users/Tanvi/Desktop/HW4_Tanvi_Ranadive/Corpus/Consumptioneconomics.txt'
p333
aI166
aa(lp334
S'C:/Users/Tanvi/Desktop/HW4_Tanvi_Ranadive/Corpus/Continuousproduction.txt'
p335
aI167
aa(lp336
S'C:/Users/Tanvi/Desktop/HW4_Tanvi_Ranadive/Corpus/Contract.txt'
p337
aI168
aa(lp338
S'C:/Users/Tanvi/Desktop/HW4_Tanvi_Ranadive/Corpus/Convection.txt'
p339
aI169
aa(lp340
S'C:/Users/Tanvi/Desktop/HW4_Tanvi_Ranadive/Corpus/ConventiononBiologicalDiversity.txt'
p341
aI170
aa(lp342
S'C:/Users/Tanvi/Desktop/HW4_Tanvi_Ranadive/Corpus/CoolBizcampaign.txt'
p343
aI171
aa(lp344
S'C:/Users/Tanvi/Desktop/HW4_Tanvi_Ranadive/Corpus/Coolingtower.txt'
p345
aI172
aa(lp346
S'C:/Users/Tanvi/Desktop/HW4_Tanvi_Ranadive/Corpus/Costbenefitanalysis.txt'
p347
aI173
aa(lp348
S'C:/Users/Tanvi/Desktop/HW4_Tanvi_Ranadive/Corpus/Costeffectivenessanalysis.txt'
p349
aI174
aa(lp350
S'C:/Users/Tanvi/Desktop/HW4_Tanvi_Ranadive/Corpus/Costofelectricitybysource.txt'
p351
aI175
aa(lp352
S'C:/Users/Tanvi/Desktop/HW4_Tanvi_Ranadive/Corpus/CouncilofAustralianGovernments.txt'
p353
aI176
aa(lp354
S'C:/Users/Tanvi/Desktop/HW4_Tanvi_Ranadive/Corpus/CreativeEnergyHomes.txt'
p355
aI177
aa(lp356
S'C:/Users/Tanvi/Desktop/HW4_Tanvi_Ranadive/Corpus/Crustgeology.txt'
p357
aI178
aa(lp358
S'C:/Users/Tanvi/Desktop/HW4_Tanvi_Ranadive/Corpus/Cummins.txt'
p359
aI179
aa(lp360
S'C:/Users/Tanvi/Desktop/HW4_Tanvi_Ranadive/Corpus/DaimlerChrysler.txt'
p361
aI180
aa(lp362
S'C:/Users/Tanvi/Desktop/HW4_Tanvi_Ranadive/Corpus/Darlington.txt'
p363
aI181
aa(lp364
S'C:/Users/Tanvi/Desktop/HW4_Tanvi_Ranadive/Corpus/Datacenterinfrastructureefficiency.txt'
p365
aI182
aa(lp366
S'C:/Users/Tanvi/Desktop/HW4_Tanvi_Ranadive/Corpus/DavidArmstrongJonesViscountLinley.txt'
p367
aI183
aa(lp368
S'C:/Users/Tanvi/Desktop/HW4_Tanvi_Ranadive/Corpus/DavidRichardsracing.txt'
p369
aI184
aa(lp370
S'C:/Users/Tanvi/Desktop/HW4_Tanvi_Ranadive/Corpus/Daylighting.txt'
p371
aI185
aa(lp372
S'C:/Users/Tanvi/Desktop/HW4_Tanvi_Ranadive/Corpus/Deepecology.txt'
p373
aI186
aa(lp374
S'C:/Users/Tanvi/Desktop/HW4_Tanvi_Ranadive/Corpus/Deepenergyretrofit.txt'
p375
aI187
aa(lp376
S'C:/Users/Tanvi/Desktop/HW4_Tanvi_Ranadive/Corpus/Demandfactor.txt'
p377
aI188
aa(lp378
S'C:/Users/Tanvi/Desktop/HW4_Tanvi_Ranadive/Corpus/Demandresponse.txt'
p379
aI189
aa(lp380
S'C:/Users/Tanvi/Desktop/HW4_Tanvi_Ranadive/Corpus/DemocraticRepublicofCongo.txt'
p381
aI190
aa(lp382
S'C:/Users/Tanvi/Desktop/HW4_Tanvi_Ranadive/Corpus/Denmark.txt'
p383
aI191
aa(lp384
S'C:/Users/Tanvi/Desktop/HW4_Tanvi_Ranadive/Corpus/DepartmentofClimateChangeandEnergyEfficiency.txt'
p385
aI192
aa(lp386
S'C:/Users/Tanvi/Desktop/HW4_Tanvi_Ranadive/Corpus/DepartmentofIndustryandScience.txt'
p387
aI193
aa(lp388
S'C:/Users/Tanvi/Desktop/HW4_Tanvi_Ranadive/Corpus/DepartmentoftheEnvironmentWaterHeritageandtheArts.txt'
p389
aI194
aa(lp390
S'C:/Users/Tanvi/Desktop/HW4_Tanvi_Ranadive/Corpus/DeutscheGesellschaftfC3BCrInternationaleZusammenarbeit.txt'
p391
aI195
aa(lp392
S'C:/Users/Tanvi/Desktop/HW4_Tanvi_Ranadive/Corpus/Dieselengine.txt'
p393
aI196
aa(lp394
S'C:/Users/Tanvi/Desktop/HW4_Tanvi_Ranadive/Corpus/Dieselfuel.txt'
p395
aI197
aa(lp396
S'C:/Users/Tanvi/Desktop/HW4_Tanvi_Ranadive/Corpus/Digitalobjectidentifier.txt'
p397
aI198
aa(lp398
S'C:/Users/Tanvi/Desktop/HW4_Tanvi_Ranadive/Corpus/Dishwashers.txt'
p399
aI199
aa(lp400
S'C:/Users/Tanvi/Desktop/HW4_Tanvi_Ranadive/Corpus/DistributedEnergyResource.txt'
p401
aI200
aa(lp402
S'C:/Users/Tanvi/Desktop/HW4_Tanvi_Ranadive/Corpus/Distributedgeneration.txt'
p403
aI201
aa(lp404
S'C:/Users/Tanvi/Desktop/HW4_Tanvi_Ranadive/Corpus/Districtheating.txt'
p405
aI202
aa(lp406
S'C:/Users/Tanvi/Desktop/HW4_Tanvi_Ranadive/Corpus/Domesticenergyconsumption.txt'
p407
aI203
aa(lp408
S'C:/Users/Tanvi/Desktop/HW4_Tanvi_Ranadive/Corpus/DrakeLandingSolarCommunity.txt'
p409
aI204
aa(lp410
S'C:/Users/Tanvi/Desktop/HW4_Tanvi_Ranadive/Corpus/DunsfoldPark.txt'
p411
aI205
aa(lp412
S'C:/Users/Tanvi/Desktop/HW4_Tanvi_Ranadive/Corpus/Dwelling.txt'
p413
aI206
aa(lp414
S'C:/Users/Tanvi/Desktop/HW4_Tanvi_Ranadive/Corpus/Dynamicdemandelectricpower.txt'
p415
aI207
aa(lp416
S'C:/Users/Tanvi/Desktop/HW4_Tanvi_Ranadive/Corpus/EarthCharter.txt'
p417
aI208
aa(lp418
S'C:/Users/Tanvi/Desktop/HW4_Tanvi_Ranadive/Corpus/EarthSummit.txt'
p419
aI209
aa(lp420
S'C:/Users/Tanvi/Desktop/HW4_Tanvi_Ranadive/Corpus/EarthSummit2002.txt'
p421
aI210
aa(lp422
S'C:/Users/Tanvi/Desktop/HW4_Tanvi_Ranadive/Corpus/EasternEurope.txt'
p423
aI211
aa(lp424
S'C:/Users/Tanvi/Desktop/HW4_Tanvi_Ranadive/Corpus/Ecocommerce.txt'
p425
aI212
aa(lp426
S'C:/Users/Tanvi/Desktop/HW4_Tanvi_Ranadive/Corpus/EcoDesignofEnergyUsingProductsDirective.txt'
p427
aI213
aa(lp428
S'C:/Users/Tanvi/Desktop/HW4_Tanvi_Ranadive/Corpus/Ecoforestry.txt'
p429
aI214
aa(lp430
S'C:/Users/Tanvi/Desktop/HW4_Tanvi_Ranadive/Corpus/Ecolabel.txt'
p431
aI215
aa(lp432
S'C:/Users/Tanvi/Desktop/HW4_Tanvi_Ranadive/Corpus/Ecologicalfootprint.txt'
p433
aI216
aa(lp434
S'C:/Users/Tanvi/Desktop/HW4_Tanvi_Ranadive/Corpus/Ecologicalmodernization.txt'
p435
aI217
aa(lp436
S'C:/Users/Tanvi/Desktop/HW4_Tanvi_Ranadive/Corpus/Ecosufficiency.txt'
p437
aI218
aa(lp438
S'C:/Users/Tanvi/Desktop/HW4_Tanvi_Ranadive/Corpus/Ecotax.txt'
p439
aI219
aa(lp440
S'C:/Users/Tanvi/Desktop/HW4_Tanvi_Ranadive/Corpus/Ecovillage.txt'
p441
aI220
aa(lp442
S'C:/Users/Tanvi/Desktop/HW4_Tanvi_Ranadive/Corpus/EducationforSustainableDevelopment.txt'
p443
aI221
aa(lp444
S'C:/Users/Tanvi/Desktop/HW4_Tanvi_Ranadive/Corpus/Efficientenergyuse.txt'
p445
aI222
aa(lp446
S'C:/Users/Tanvi/Desktop/HW4_Tanvi_Ranadive/Corpus/EKOenergy.txt'
p447
aI223
aa(lp448
S'C:/Users/Tanvi/Desktop/HW4_Tanvi_Ranadive/Corpus/ElectricalenergyefficiencyonUnitedStatesfarms.txt'
p449
aI224
aa(lp450
S'C:/Users/Tanvi/Desktop/HW4_Tanvi_Ranadive/Corpus/Electricalgrid.txt'
p451
aI225
aa(lp452
S'C:/Users/Tanvi/Desktop/HW4_Tanvi_Ranadive/Corpus/Electricalpowerindustry.txt'
p453
aI226
aa(lp454
S'C:/Users/Tanvi/Desktop/HW4_Tanvi_Ranadive/Corpus/Electricalsubstation.txt'
p455
aI227
aa(lp456
S'C:/Users/Tanvi/Desktop/HW4_Tanvi_Ranadive/Corpus/Electricgenerator.txt'
p457
aI228
aa(lp458
S'C:/Users/Tanvi/Desktop/HW4_Tanvi_Ranadive/Corpus/Electricity.txt'
p459
aI229
aa(lp460
S'C:/Users/Tanvi/Desktop/HW4_Tanvi_Ranadive/Corpus/Electricitydelivery.txt'
p461
aI230
aa(lp462
S'C:/Users/Tanvi/Desktop/HW4_Tanvi_Ranadive/Corpus/Electricitygeneration.txt'
p463
aI231
aa(lp464
S'C:/Users/Tanvi/Desktop/HW4_Tanvi_Ranadive/Corpus/Electricitymarket.txt'
p465
aI232
aa(lp466
S'C:/Users/Tanvi/Desktop/HW4_Tanvi_Ranadive/Corpus/Electricityretailing.txt'
p467
aI233
aa(lp468
S'C:/Users/Tanvi/Desktop/HW4_Tanvi_Ranadive/Corpus/Electricmotors.txt'
p469
aI234
aa(lp470
S'C:/Users/Tanvi/Desktop/HW4_Tanvi_Ranadive/Corpus/Electricpowerdistribution.txt'
p471
aI235
aa(lp472
S'C:/Users/Tanvi/Desktop/HW4_Tanvi_Ranadive/Corpus/Electricpowerquality.txt'
p473
aI236
aa(lp474
S'C:/Users/Tanvi/Desktop/HW4_Tanvi_Ranadive/Corpus/Electricpowertransmission.txt'
p475
aI237
aa(lp476
S'C:/Users/Tanvi/Desktop/HW4_Tanvi_Ranadive/Corpus/Electricvehicle.txt'
p477
aI238
aa(lp478
S'C:/Users/Tanvi/Desktop/HW4_Tanvi_Ranadive/Corpus/Electrification.txt'
p479
aI239
aa(lp480
S'C:/Users/Tanvi/Desktop/HW4_Tanvi_Ranadive/Corpus/Electrolysisofwater.txt'
p481
aI240
aa(lp482
S'C:/Users/Tanvi/Desktop/HW4_Tanvi_Ranadive/Corpus/Embodiedenergy.txt'
p483
aI241
aa(lp484
S'C:/Users/Tanvi/Desktop/HW4_Tanvi_Ranadive/Corpus/EmergingMarkets.txt'
p485
aI242
aa(lp486
S'C:/Users/Tanvi/Desktop/HW4_Tanvi_Ranadive/Corpus/Emissionstandard.txt'
p487
aI243
aa(lp488
S'C:/Users/Tanvi/Desktop/HW4_Tanvi_Ranadive/Corpus/Emissionstrading.txt'
p489
aI244
aa(lp490
S'C:/Users/Tanvi/Desktop/HW4_Tanvi_Ranadive/Corpus/EmpireStateBuilding.txt'
p491
aI245
aa(lp492
S'C:/Users/Tanvi/Desktop/HW4_Tanvi_Ranadive/Corpus/Endangeredspecies.txt'
p493
aI246
aa(lp494
S'C:/Users/Tanvi/Desktop/HW4_Tanvi_Ranadive/Corpus/Energiewende.txt'
p495
aI247
aa(lp496
S'C:/Users/Tanvi/Desktop/HW4_Tanvi_Ranadive/Corpus/EnergyandEnvironmentalScience.txt'
p497
aI248
aa(lp498
S'C:/Users/Tanvi/Desktop/HW4_Tanvi_Ranadive/Corpus/Energyaudit.txt'
p499
aI249
aa(lp500
S'C:/Users/Tanvi/Desktop/HW4_Tanvi_Ranadive/Corpus/Energyconservation.txt'
p501
aI250
aa(lp502
S'C:/Users/Tanvi/Desktop/HW4_Tanvi_Ranadive/Corpus/EnergyconservationintheUnitedStates.txt'
p503
aI251
aa(lp504
S'C:/Users/Tanvi/Desktop/HW4_Tanvi_Ranadive/Corpus/Energyconservationlaw.txt'
p505
aI252
aa(lp506
S'C:/Users/Tanvi/Desktop/HW4_Tanvi_Ranadive/Corpus/Energyconservationmeasure.txt'
p507
aI253
aa(lp508
S'C:/Users/Tanvi/Desktop/HW4_Tanvi_Ranadive/Corpus/Energyconsumption.txt'
p509
aI254
aa(lp510
S'C:/Users/Tanvi/Desktop/HW4_Tanvi_Ranadive/Corpus/Energycrisis.txt'
p511
aI255
aa(lp512
S'C:/Users/Tanvi/Desktop/HW4_Tanvi_Ranadive/Corpus/Energycrop.txt'
p513
aI256
aa(lp514
S'C:/Users/Tanvi/Desktop/HW4_Tanvi_Ranadive/Corpus/Energydemandmanagement.txt'
p515
aI257
aa(lp516
S'C:/Users/Tanvi/Desktop/HW4_Tanvi_Ranadive/Corpus/Energydescent.txt'
p517
aI258
aa(lp518
S'C:/Users/Tanvi/Desktop/HW4_Tanvi_Ranadive/Corpus/Energydevelopment.txt'
p519
aI259
aa(lp520
S'C:/Users/Tanvi/Desktop/HW4_Tanvi_Ranadive/Corpus/EnergyEfficiencyandConservationAuthority.txt'
p521
aI260
aa(lp522
S'C:/Users/Tanvi/Desktop/HW4_Tanvi_Ranadive/Corpus/Energyefficiencydisambiguation.txt'
p523
aI261
aa(lp524
S'C:/Users/Tanvi/Desktop/HW4_Tanvi_Ranadive/Corpus/Energyefficiencyimplementation.txt'
p525
aI262
aa(lp526
S'C:/Users/Tanvi/Desktop/HW4_Tanvi_Ranadive/Corpus/EnergyefficiencyinEurope.txt'
p527
aI263
aa(lp528
S'C:/Users/Tanvi/Desktop/HW4_Tanvi_Ranadive/Corpus/Energyefficiencyintransportation.txt'
p529
aI264
aa(lp530
S'C:/Users/Tanvi/Desktop/HW4_Tanvi_Ranadive/Corpus/EnergyEfficiencyServicesLimited.txt'
p531
aI265
aa(lp532
S'C:/Users/Tanvi/Desktop/HW4_Tanvi_Ranadive/Corpus/Energyefficientbuildings.txt'
p533
aI266
aa(lp534
S'C:/Users/Tanvi/Desktop/HW4_Tanvi_Ranadive/Corpus/Energyefficientlandscaping.txt'
p535
aI267
aa(lp536
S'C:/Users/Tanvi/Desktop/HW4_Tanvi_Ranadive/Corpus/EnergyforSustainableDevelopment.txt'
p537
aI268
aa(lp538
S'C:/Users/Tanvi/Desktop/HW4_Tanvi_Ranadive/Corpus/EnergyGlobeAward.txt'
p539
aI269
aa(lp540
S'C:/Users/Tanvi/Desktop/HW4_Tanvi_Ranadive/Corpus/Energyhierarchy.txt'
p541
aI270
aa(lp542
S'C:/Users/Tanvi/Desktop/HW4_Tanvi_Ranadive/Corpus/Energyinputlabeling.txt'
p543
aI271
aa(lp544
S'C:/Users/Tanvi/Desktop/HW4_Tanvi_Ranadive/Corpus/EnergyModelingForum.txt'
p545
aI272
aa(lp546
S'C:/Users/Tanvi/Desktop/HW4_Tanvi_Ranadive/Corpus/Energymonitoringandtargeting.txt'
p547
aI273
aa(lp548
S'C:/Users/Tanvi/Desktop/HW4_Tanvi_Ranadive/Corpus/Energypark.txt'
p549
aI274
aa(lp550
S'C:/Users/Tanvi/Desktop/HW4_Tanvi_Ranadive/Corpus/Energypolicy.txt'
p551
aI275
aa(lp552
S'C:/Users/Tanvi/Desktop/HW4_Tanvi_Ranadive/Corpus/EnergyPolicyjournal.txt'
p553
aI276
aa(lp554
S'C:/Users/Tanvi/Desktop/HW4_Tanvi_Ranadive/Corpus/EnergypolicyoftheEuropeanUnion.txt'
p555
aI277
aa(lp556
S'C:/Users/Tanvi/Desktop/HW4_Tanvi_Ranadive/Corpus/Energypoverty.txt'
p557
aI278
aa(lp558
S'C:/Users/Tanvi/Desktop/HW4_Tanvi_Ranadive/Corpus/Energyrecovery.txt'
p559
aI279
aa(lp560
S'C:/Users/Tanvi/Desktop/HW4_Tanvi_Ranadive/Corpus/Energyrecycling.txt'
p561
aI280
aa(lp562
S'C:/Users/Tanvi/Desktop/HW4_Tanvi_Ranadive/Corpus/EnergyReductionAssets.txt'
p563
aI281
aa(lp564
S'C:/Users/Tanvi/Desktop/HW4_Tanvi_Ranadive/Corpus/Energyresilience.txt'
p565
aI282
aa(lp566
S'C:/Users/Tanvi/Desktop/HW4_Tanvi_Ranadive/Corpus/Energyreturnedonenergyinvested.txt'
p567
aI283
aa(lp568
S'C:/Users/Tanvi/Desktop/HW4_Tanvi_Ranadive/Corpus/Energysavinglamp.txt'
p569
aI284
aa(lp570
S'C:/Users/Tanvi/Desktop/HW4_Tanvi_Ranadive/Corpus/EnergySavingTrust.txt'
p571
aI285
aa(lp572
S'C:/Users/Tanvi/Desktop/HW4_Tanvi_Ranadive/Corpus/Energysecurity.txt'
p573
aI286
aa(lp574
S'C:/Users/Tanvi/Desktop/HW4_Tanvi_Ranadive/Corpus/EnergyStar.txt'
p575
aI287
aa(lp576
S'C:/Users/Tanvi/Desktop/HW4_Tanvi_Ranadive/Corpus/Energystorage.txt'
p577
aI288
aa(lp578
S'C:/Users/Tanvi/Desktop/HW4_Tanvi_Ranadive/Corpus/Energysubsidies.txt'
p579
aI289
aa(lp580
S'C:/Users/Tanvi/Desktop/HW4_Tanvi_Ranadive/Corpus/Energytax.txt'
p581
aI290
aa(lp582
S'C:/Users/Tanvi/Desktop/HW4_Tanvi_Ranadive/Corpus/Energytransition.txt'
p583
aI291
aa(lp584
S'C:/Users/Tanvi/Desktop/HW4_Tanvi_Ranadive/Corpus/Engineering.txt'
p585
aI292
aa(lp586
S'C:/Users/Tanvi/Desktop/HW4_Tanvi_Ranadive/Corpus/Enhancedgeothermalsystem.txt'
p587
aI293
aa(lp588
S'C:/Users/Tanvi/Desktop/HW4_Tanvi_Ranadive/Corpus/Enhancedoilrecovery.txt'
p589
aI294
aa(lp590
S'C:/Users/Tanvi/Desktop/HW4_Tanvi_Ranadive/Corpus/Enthalpy.txt'
p591
aI295
aa(lp592
S'C:/Users/Tanvi/Desktop/HW4_Tanvi_Ranadive/Corpus/Environmentaldegradation.txt'
p593
aI296
aa(lp594
S'C:/Users/Tanvi/Desktop/HW4_Tanvi_Ranadive/Corpus/Environmentaldesign.txt'
p595
aI297
aa(lp596
S'C:/Users/Tanvi/Desktop/HW4_Tanvi_Ranadive/Corpus/Environmentaleconomics.txt'
p597
aI298
aa(lp598
S'C:/Users/Tanvi/Desktop/HW4_Tanvi_Ranadive/Corpus/Environmentalenterprise.txt'
p599
aI299
aa(lp600
S'C:/Users/Tanvi/Desktop/HW4_Tanvi_Ranadive/Corpus/Environmentalfinance.txt'
p601
aI300
aa(lp602
S'C:/Users/Tanvi/Desktop/HW4_Tanvi_Ranadive/Corpus/Environmentalimpactassessment.txt'
p603
aI301
aa(lp604
S'C:/Users/Tanvi/Desktop/HW4_Tanvi_Ranadive/Corpus/Environmentalimpactofaviation.txt'
p605
aI302
aa(lp606
S'C:/Users/Tanvi/Desktop/HW4_Tanvi_Ranadive/Corpus/Environmentalimpactofelectricitygeneration.txt'
p607
aI303
aa(lp608
S'C:/Users/Tanvi/Desktop/HW4_Tanvi_Ranadive/Corpus/Environmentalimpactoftheenergyindustry.txt'
p609
aI304
aa(lp610
S'C:/Users/Tanvi/Desktop/HW4_Tanvi_Ranadive/Corpus/Environmentalism.txt'
p611
aI305
aa(lp612
S'C:/Users/Tanvi/Desktop/HW4_Tanvi_Ranadive/Corpus/Environmentallyresponsible.txt'
p613
aI306
aa(lp614
S'C:/Users/Tanvi/Desktop/HW4_Tanvi_Ranadive/Corpus/Environmentalpreservation.txt'
p615
aI307
aa(lp616
S'C:/Users/Tanvi/Desktop/HW4_Tanvi_Ranadive/Corpus/Environmentalpricingreform.txt'
p617
aI308
aa(lp618
S'C:/Users/Tanvi/Desktop/HW4_Tanvi_Ranadive/Corpus/Environmentalremediation.txt'
p619
aI309
aa(lp620
S'C:/Users/Tanvi/Desktop/HW4_Tanvi_Ranadive/Corpus/Environmentaltariff.txt'
p621
aI310
aa(lp622
S'C:/Users/Tanvi/Desktop/HW4_Tanvi_Ranadive/Corpus/Environmentaltechnology.txt'
p623
aI311
aa(lp624
S'C:/Users/Tanvi/Desktop/HW4_Tanvi_Ranadive/Corpus/Ethanol.txt'
p625
aI312
aa(lp626
S'C:/Users/Tanvi/Desktop/HW4_Tanvi_Ranadive/Corpus/Ethanolfuel.txt'
p627
aI313
aa(lp628
S'C:/Users/Tanvi/Desktop/HW4_Tanvi_Ranadive/Corpus/Ethicalconsumerism.txt'
p629
aI314
aa(lp630
S'C:/Users/Tanvi/Desktop/HW4_Tanvi_Ranadive/Corpus/Eucalyptus.txt'
p631
aI315
aa(lp632
S'C:/Users/Tanvi/Desktop/HW4_Tanvi_Ranadive/Corpus/EugeneGreenEnergyStandard.txt'
p633
aI316
aa(lp634
S'C:/Users/Tanvi/Desktop/HW4_Tanvi_Ranadive/Corpus/Euro.txt'
p635
aI317
aa(lp636
S'C:/Users/Tanvi/Desktop/HW4_Tanvi_Ranadive/Corpus/EuropeanBiomassAssociation.txt'
p637
aI318
aa(lp638
S'C:/Users/Tanvi/Desktop/HW4_Tanvi_Ranadive/Corpus/EuropeanUnion.txt'
p639
aI319
aa(lp640
S'C:/Users/Tanvi/Desktop/HW4_Tanvi_Ranadive/Corpus/ExcellenceinDesignforGreaterEfficiencies.txt'
p641
aI320
aa(lp642
S'C:/Users/Tanvi/Desktop/HW4_Tanvi_Ranadive/Corpus/Exhaustgas.txt'
p643
aI321
aa(lp644
S'C:/Users/Tanvi/Desktop/HW4_Tanvi_Ranadive/Corpus/Familyplanning.txt'
p645
aI322
aa(lp646
S'C:/Users/Tanvi/Desktop/HW4_Tanvi_Ranadive/Corpus/Fastbreederreactor.txt'
p647
aI323
aa(lp648
S'C:/Users/Tanvi/Desktop/HW4_Tanvi_Ranadive/Corpus/Faultpowerengineering.txt'
p649
aI324
aa(lp650
S'C:/Users/Tanvi/Desktop/HW4_Tanvi_Ranadive/Corpus/FederationofNepaleseChambersofCommerceandIndustryFNCCI.txt'
p651
aI325
aa(lp652
S'C:/Users/Tanvi/Desktop/HW4_Tanvi_Ranadive/Corpus/Feedintariff.txt'
p653
aI326
aa(lp654
S'C:/Users/Tanvi/Desktop/HW4_Tanvi_Ranadive/Corpus/FerreraErbognone.txt'
p655
aI327
aa(lp656
S'C:/Users/Tanvi/Desktop/HW4_Tanvi_Ranadive/Corpus/FIAFormulaEChampionship.txt'
p657
aI328
aa(lp658
S'C:/Users/Tanvi/Desktop/HW4_Tanvi_Ranadive/Corpus/Financialcrisisof2007E2809308.txt'
p659
aI329
aa(lp660
S'C:/Users/Tanvi/Desktop/HW4_Tanvi_Ranadive/Corpus/Firedamp.txt'
p661
aI330
aa(lp662
S'C:/Users/Tanvi/Desktop/HW4_Tanvi_Ranadive/Corpus/Fiscalenvironmentalism.txt'
p663
aI331
aa(lp664
S'C:/Users/Tanvi/Desktop/HW4_Tanvi_Ranadive/Corpus/FischerE28093Tropschprocess.txt'
p665
aI332
aa(lp666
S'C:/Users/Tanvi/Desktop/HW4_Tanvi_Ranadive/Corpus/Fisheriesmanagement.txt'
p667
aI333
aa(lp668
S'C:/Users/Tanvi/Desktop/HW4_Tanvi_Ranadive/Corpus/Fluegas.txt'
p669
aI334
aa(lp670
S'C:/Users/Tanvi/Desktop/HW4_Tanvi_Ranadive/Corpus/Fluegasemissionsfromfossilfuelcombustion.txt'
p671
aI335
aa(lp672
S'C:/Users/Tanvi/Desktop/HW4_Tanvi_Ranadive/Corpus/Fluorescentlights.txt'
p673
aI336
aa(lp674
S'C:/Users/Tanvi/Desktop/HW4_Tanvi_Ranadive/Corpus/Flywheelenergystorage.txt'
p675
aI337
aa(lp676
S'C:/Users/Tanvi/Desktop/HW4_Tanvi_Ranadive/Corpus/Fontwell.txt'
p677
aI338
aa(lp678
S'C:/Users/Tanvi/Desktop/HW4_Tanvi_Ranadive/Corpus/Foodmiles.txt'
p679
aI339
aa(lp680
S'C:/Users/Tanvi/Desktop/HW4_Tanvi_Ranadive/Corpus/Foodsecurity.txt'
p681
aI340
aa(lp682
S'C:/Users/Tanvi/Desktop/HW4_Tanvi_Ranadive/Corpus/Ford.txt'
p683
aI341
aa(lp684
S'C:/Users/Tanvi/Desktop/HW4_Tanvi_Ranadive/Corpus/FordMotorCompany.txt'
p685
aI342
aa(lp686
S'C:/Users/Tanvi/Desktop/HW4_Tanvi_Ranadive/Corpus/Forestgardening.txt'
p687
aI343
aa(lp688
S'C:/Users/Tanvi/Desktop/HW4_Tanvi_Ranadive/Corpus/Fossilfuel.txt'
p689
aI344
aa(lp690
S'C:/Users/Tanvi/Desktop/HW4_Tanvi_Ranadive/Corpus/Fossilfuelphaseout.txt'
p691
aI345
aa(lp692
S'C:/Users/Tanvi/Desktop/HW4_Tanvi_Ranadive/Corpus/Fossilfuelpowerplant.txt'
p693
aI346
aa(lp694
S'C:/Users/Tanvi/Desktop/HW4_Tanvi_Ranadive/Corpus/Fossilfuelpowerstation.txt'
p695
aI347
aa(lp696
S'C:/Users/Tanvi/Desktop/HW4_Tanvi_Ranadive/Corpus/Fossilfuels.txt'
p697
aI348
aa(lp698
S'C:/Users/Tanvi/Desktop/HW4_Tanvi_Ranadive/Corpus/FrameworkProgrammesforResearchandTechnologicalDevelopment.txt'
p699
aI349
aa(lp700
S'C:/Users/Tanvi/Desktop/HW4_Tanvi_Ranadive/Corpus/France.txt'
p701
aI350
aa(lp702
S'C:/Users/Tanvi/Desktop/HW4_Tanvi_Ranadive/Corpus/FraunhoferSociety.txt'
p703
aI351
aa(lp704
S'C:/Users/Tanvi/Desktop/HW4_Tanvi_Ranadive/Corpus/Freezers.txt'
p705
aI352
aa(lp706
S'C:/Users/Tanvi/Desktop/HW4_Tanvi_Ranadive/Corpus/Fuel.txt'
p707
aI353
aa(lp708
S'C:/Users/Tanvi/Desktop/HW4_Tanvi_Ranadive/Corpus/Fuelcell.txt'
p709
aI354
aa(lp710
S'C:/Users/Tanvi/Desktop/HW4_Tanvi_Ranadive/Corpus/FuelCellsandHydrogenJointTechnologyInitiative.txt'
p711
aI355
aa(lp712
S'C:/Users/Tanvi/Desktop/HW4_Tanvi_Ranadive/Corpus/Fueleconomyinaircraft.txt'
p713
aI356
aa(lp714
S'C:/Users/Tanvi/Desktop/HW4_Tanvi_Ranadive/Corpus/Fueleconomyinautomobiles.txt'
p715
aI357
aa(lp716
S'C:/Users/Tanvi/Desktop/HW4_Tanvi_Ranadive/Corpus/Fuelefficiency.txt'
p717
aI358
aa(lp718
S'C:/Users/Tanvi/Desktop/HW4_Tanvi_Ranadive/Corpus/Fusionpower.txt'
p719
aI359
aa(lp720
S'C:/Users/Tanvi/Desktop/HW4_Tanvi_Ranadive/Corpus/GansuWindFarm.txt'
p721
aI360
aa(lp722
S'C:/Users/Tanvi/Desktop/HW4_Tanvi_Ranadive/Corpus/Gascompressor.txt'
p723
aI361
aa(lp724
S'C:/Users/Tanvi/Desktop/HW4_Tanvi_Ranadive/Corpus/Gasengine.txt'
p725
aI362
aa(lp726
S'C:/Users/Tanvi/Desktop/HW4_Tanvi_Ranadive/Corpus/Gasified.txt'
p727
aI363
aa(lp728
S'C:/Users/Tanvi/Desktop/HW4_Tanvi_Ranadive/Corpus/Gasohol.txt'
p729
aI364
aa(lp730
S'C:/Users/Tanvi/Desktop/HW4_Tanvi_Ranadive/Corpus/Gasoline.txt'
p731
aI365
aa(lp732
S'C:/Users/Tanvi/Desktop/HW4_Tanvi_Ranadive/Corpus/Gastoliquids.txt'
p733
aI366
aa(lp734
S'C:/Users/Tanvi/Desktop/HW4_Tanvi_Ranadive/Corpus/Gasturbine.txt'
p735
aI367
aa(lp736
S'C:/Users/Tanvi/Desktop/HW4_Tanvi_Ranadive/Corpus/GeneralMotorsCorporation.txt'
p737
aI368
aa(lp738
S'C:/Users/Tanvi/Desktop/HW4_Tanvi_Ranadive/Corpus/Geopark.txt'
p739
aI369
aa(lp740
S'C:/Users/Tanvi/Desktop/HW4_Tanvi_Ranadive/Corpus/GeorgeMonbiot.txt'
p741
aI370
aa(lp742
S'C:/Users/Tanvi/Desktop/HW4_Tanvi_Ranadive/Corpus/GeorgeOlah.txt'
p743
aI371
aa(lp744
S'C:/Users/Tanvi/Desktop/HW4_Tanvi_Ranadive/Corpus/Geothermalelectricity.txt'
p745
aI372
aa(lp746
S'C:/Users/Tanvi/Desktop/HW4_Tanvi_Ranadive/Corpus/Geothermalenergy.txt'
p747
aI373
aa(lp748
S'C:/Users/Tanvi/Desktop/HW4_Tanvi_Ranadive/Corpus/GeothermalenergyintheUnitedStates.txt'
p749
aI374
aa(lp750
S'C:/Users/Tanvi/Desktop/HW4_Tanvi_Ranadive/Corpus/Geothermalexchangeheatpump.txt'
p751
aI375
aa(lp752
S'C:/Users/Tanvi/Desktop/HW4_Tanvi_Ranadive/Corpus/Geothermalheat.txt'
p753
aI376
aa(lp754
S'C:/Users/Tanvi/Desktop/HW4_Tanvi_Ranadive/Corpus/Geothermalheatpump.txt'
p755
aI377
aa(lp756
S'C:/Users/Tanvi/Desktop/HW4_Tanvi_Ranadive/Corpus/Geothermalpower.txt'
p757
aI378
aa(lp758
S'C:/Users/Tanvi/Desktop/HW4_Tanvi_Ranadive/Corpus/GeothermalpowerinIceland.txt'
p759
aI379
aa(lp760
S'C:/Users/Tanvi/Desktop/HW4_Tanvi_Ranadive/Corpus/GeothermalpowerinIndonesia.txt'
p761
aI380
aa(lp762
S'C:/Users/Tanvi/Desktop/HW4_Tanvi_Ranadive/Corpus/GeothermalpowerinthePhilippines.txt'
p763
aI381
aa(lp764
S'C:/Users/Tanvi/Desktop/HW4_Tanvi_Ranadive/Corpus/GermanNationalActionPlanonEnergyEfficiency.txt'
p765
aI382
aa(lp766
S'C:/Users/Tanvi/Desktop/HW4_Tanvi_Ranadive/Corpus/Germany.txt'
p767
aI383
aa(lp768
S'C:/Users/Tanvi/Desktop/HW4_Tanvi_Ranadive/Corpus/Girassolsolarpowerplant.txt'
p769
aI384
aa(lp770
S'C:/Users/Tanvi/Desktop/HW4_Tanvi_Ranadive/Corpus/Globalwarming.txt'
p771
aI385
aa(lp772
S'C:/Users/Tanvi/Desktop/HW4_Tanvi_Ranadive/Corpus/GoodwoodCircuit.txt'
p773
aI386
aa(lp774
S'C:/Users/Tanvi/Desktop/HW4_Tanvi_Ranadive/Corpus/GoodwoodFestivalofSpeed.txt'
p775
aI387
aa(lp776
S'C:/Users/Tanvi/Desktop/HW4_Tanvi_Ranadive/Corpus/Gorlovhelicalturbine.txt'
p777
aI388
aa(lp778
S'C:/Users/Tanvi/Desktop/HW4_Tanvi_Ranadive/Corpus/GreaterGabbardwindfarm.txt'
p779
aI389
aa(lp780
S'C:/Users/Tanvi/Desktop/HW4_Tanvi_Ranadive/Corpus/Greenaccounting.txt'
p781
aI390
aa(lp782
S'C:/Users/Tanvi/Desktop/HW4_Tanvi_Ranadive/Corpus/Greenbankfinancialinstitution.txt'
p783
aI391
aa(lp784
S'C:/Users/Tanvi/Desktop/HW4_Tanvi_Ranadive/Corpus/Greenbuilding.txt'
p785
aI392
aa(lp786
S'C:/Users/Tanvi/Desktop/HW4_Tanvi_Ranadive/Corpus/GreenBuildingMIT.txt'
p787
aI393
aa(lp788
S'C:/Users/Tanvi/Desktop/HW4_Tanvi_Ranadive/Corpus/GreenBuildingXML.txt'
p789
aI394
aa(lp790
S'C:/Users/Tanvi/Desktop/HW4_Tanvi_Ranadive/Corpus/Greencomputing.txt'
p791
aI395
aa(lp792
S'C:/Users/Tanvi/Desktop/HW4_Tanvi_Ranadive/Corpus/Greeneconomy.txt'
p793
aI396
aa(lp794
S'C:/Users/Tanvi/Desktop/HW4_Tanvi_Ranadive/Corpus/GreenelectricityintheUnitedKingdom.txt'
p795
aI397
aa(lp796
S'C:/Users/Tanvi/Desktop/HW4_Tanvi_Ranadive/Corpus/GreenFuelTechnologiesCorporation.txt'
p797
aI398
aa(lp798
S'C:/Users/Tanvi/Desktop/HW4_Tanvi_Ranadive/Corpus/Greenhousegas.txt'
p799
aI399
aa(lp800
S'C:/Users/Tanvi/Desktop/HW4_Tanvi_Ranadive/Corpus/Greenhousegasemissions.txt'
p801
aI400
aa(lp802
S'C:/Users/Tanvi/Desktop/HW4_Tanvi_Ranadive/Corpus/Greenhousegasremediation.txt'
p803
aI401
aa(lp804
S'C:/Users/Tanvi/Desktop/HW4_Tanvi_Ranadive/Corpus/GreenhouseSolutionswithSustainableEnergy.txt'
p805
aI402
aa(lp806
S'C:/Users/Tanvi/Desktop/HW4_Tanvi_Ranadive/Corpus/Greenjob.txt'
p807
aI403
aa(lp808
S'C:/Users/Tanvi/Desktop/HW4_Tanvi_Ranadive/Corpus/Greenmarketing.txt'
p809
aI404
aa(lp810
S'C:/Users/Tanvi/Desktop/HW4_Tanvi_Ranadive/Corpus/Greenpaper.txt'
p811
aI405
aa(lp812
S'C:/Users/Tanvi/Desktop/HW4_Tanvi_Ranadive/Corpus/Greenparadox.txt'
p813
aI406
aa(lp814
S'C:/Users/Tanvi/Desktop/HW4_Tanvi_Ranadive/Corpus/Greenpeace.txt'
p815
aI407
aa(lp816
S'C:/Users/Tanvi/Desktop/HW4_Tanvi_Ranadive/Corpus/Greenpolitics.txt'
p817
aI408
aa(lp818
S'C:/Users/Tanvi/Desktop/HW4_Tanvi_Ranadive/Corpus/Greenpower.txt'
p819
aI409
aa(lp820
S'C:/Users/Tanvi/Desktop/HW4_Tanvi_Ranadive/Corpus/Greenretrofit.txt'
p821
aI410
aa(lp822
S'C:/Users/Tanvi/Desktop/HW4_Tanvi_Ranadive/Corpus/Greentrading.txt'
p823
aI411
aa(lp824
S'C:/Users/Tanvi/Desktop/HW4_Tanvi_Ranadive/Corpus/Greenvehicle.txt'
p825
aI412
aa(lp826
S'C:/Users/Tanvi/Desktop/HW4_Tanvi_Ranadive/Corpus/Gridenergystorage.txt'
p827
aI413
aa(lp828
S'C:/Users/Tanvi/Desktop/HW4_Tanvi_Ranadive/Corpus/GrindavC3ADk.txt'
p829
aI414
aa(lp830
S'C:/Users/Tanvi/Desktop/HW4_Tanvi_Ranadive/Corpus/Groundsourceheatpump.txt'
p831
aI415
aa(lp832
S'C:/Users/Tanvi/Desktop/HW4_Tanvi_Ranadive/Corpus/HandleSystem.txt'
p833
aI416
aa(lp834
S'C:/Users/Tanvi/Desktop/HW4_Tanvi_Ranadive/Corpus/Headache.txt'
p835
aI417
aa(lp836
S'C:/Users/Tanvi/Desktop/HW4_Tanvi_Ranadive/Corpus/Heat.txt'
p837
aI418
aa(lp838
S'C:/Users/Tanvi/Desktop/HW4_Tanvi_Ranadive/Corpus/Heatengine.txt'
p839
aI419
aa(lp840
S'C:/Users/Tanvi/Desktop/HW4_Tanvi_Ranadive/Corpus/Heatexchanger.txt'
p841
aI420
aa(lp842
S'C:/Users/Tanvi/Desktop/HW4_Tanvi_Ranadive/Corpus/Heatpump.txt'
p843
aI421
aa(lp844
S'C:/Users/Tanvi/Desktop/HW4_Tanvi_Ranadive/Corpus/Heatpumps.txt'
p845
aI422
aa(lp846
S'C:/Users/Tanvi/Desktop/HW4_Tanvi_Ranadive/Corpus/Heatrecoverysteamgenerator.txt'
p847
aI423
aa(lp848
S'C:/Users/Tanvi/Desktop/HW4_Tanvi_Ranadive/Corpus/Hemp.txt'
p849
aI424
aa(lp850
S'C:/Users/Tanvi/Desktop/HW4_Tanvi_Ranadive/Corpus/Highlevelradioactivewastemanagement.txt'
p851
aI425
aa(lp852
S'C:/Users/Tanvi/Desktop/HW4_Tanvi_Ranadive/Corpus/Hightemperatureinsulationwool.txt'
p853
aI426
aa(lp854
S'C:/Users/Tanvi/Desktop/HW4_Tanvi_Ranadive/Corpus/Highvoltagedirectcurrent.txt'
p855
aI427
aa(lp856
S'C:/Users/Tanvi/Desktop/HW4_Tanvi_Ranadive/Corpus/Holoceneextinction.txt'
p857
aI428
aa(lp858
S'C:/Users/Tanvi/Desktop/HW4_Tanvi_Ranadive/Corpus/Honeywell.txt'
p859
aI429
aa(lp860
S'C:/Users/Tanvi/Desktop/HW4_Tanvi_Ranadive/Corpus/Hotdryrockgeothermalenergy.txt'
p861
aI430
aa(lp862
S'C:/Users/Tanvi/Desktop/HW4_Tanvi_Ranadive/Corpus/Humanimpactontheenvironment.txt'
p863
aI431
aa(lp864
S'C:/Users/Tanvi/Desktop/HW4_Tanvi_Ranadive/Corpus/Humanoverpopulation.txt'
p865
aI432
aa(lp866
S'C:/Users/Tanvi/Desktop/HW4_Tanvi_Ranadive/Corpus/Humanpopulationcontrol.txt'
p867
aI433
aa(lp868
S'C:/Users/Tanvi/Desktop/HW4_Tanvi_Ranadive/Corpus/Hybridvehicle.txt'
p869
aI434
aa(lp870
S'C:/Users/Tanvi/Desktop/HW4_Tanvi_Ranadive/Corpus/Hydrocarbonfuel.txt'
p871
aI435
aa(lp872
S'C:/Users/Tanvi/Desktop/HW4_Tanvi_Ranadive/Corpus/Hydroelectricity.txt'
p873
aI436
aa(lp874
S'C:/Users/Tanvi/Desktop/HW4_Tanvi_Ranadive/Corpus/Hydrogen.txt'
p875
aI437
aa(lp876
S'C:/Users/Tanvi/Desktop/HW4_Tanvi_Ranadive/Corpus/Hydrogenation.txt'
p877
aI438
aa(lp878
S'C:/Users/Tanvi/Desktop/HW4_Tanvi_Ranadive/Corpus/Hydrogeneconomy.txt'
p879
aI439
aa(lp880
S'C:/Users/Tanvi/Desktop/HW4_Tanvi_Ranadive/Corpus/Hydrogenfuel.txt'
p881
aI440
aa(lp882
S'C:/Users/Tanvi/Desktop/HW4_Tanvi_Ranadive/Corpus/Hydrogenfuelcellvehicles.txt'
p883
aI441
aa(lp884
S'C:/Users/Tanvi/Desktop/HW4_Tanvi_Ranadive/Corpus/Hydrogentechnologies.txt'
p885
aI442
aa(lp886
S'C:/Users/Tanvi/Desktop/HW4_Tanvi_Ranadive/Corpus/Hydropower.txt'
p887
aI443
aa(lp888
S'C:/Users/Tanvi/Desktop/HW4_Tanvi_Ranadive/Corpus/Iceland.txt'
p889
aI444
aa(lp890
S'C:/Users/Tanvi/Desktop/HW4_Tanvi_Ranadive/Corpus/IEASolarHeating26CoolingImplementingAgreementTask13.txt'
p891
aI445
aa(lp892
S'C:/Users/Tanvi/Desktop/HW4_Tanvi_Ranadive/Corpus/Incandescentlightbulb.txt'
p893
aI446
aa(lp894
S'C:/Users/Tanvi/Desktop/HW4_Tanvi_Ranadive/Corpus/Incandescentlightbulbs.txt'
p895
aI447
aa(lp896
S'C:/Users/Tanvi/Desktop/HW4_Tanvi_Ranadive/Corpus/Incineration.txt'
p897
aI448
aa(lp898
S'C:/Users/Tanvi/Desktop/HW4_Tanvi_Ranadive/Corpus/IndianapolisCityCountyBuilding.txt'
p899
aI449
aa(lp900
S'C:/Users/Tanvi/Desktop/HW4_Tanvi_Ranadive/Corpus/Inductiongenerator.txt'
p901
aI450
aa(lp902
S'C:/Users/Tanvi/Desktop/HW4_Tanvi_Ranadive/Corpus/IndustrialAssessmentCenter.txt'
p903
aI451
aa(lp904
S'C:/Users/Tanvi/Desktop/HW4_Tanvi_Ranadive/Corpus/Industrialecology.txt'
p905
aI452
aa(lp906
S'C:/Users/Tanvi/Desktop/HW4_Tanvi_Ranadive/Corpus/Industrialgas.txt'
p907
aI453
aa(lp908
S'C:/Users/Tanvi/Desktop/HW4_Tanvi_Ranadive/Corpus/Industrialrevolution.txt'
p909
aI454
aa(lp910
S'C:/Users/Tanvi/Desktop/HW4_Tanvi_Ranadive/Corpus/Industrialwastewatertreatment.txt'
p911
aI455
aa(lp912
S'C:/Users/Tanvi/Desktop/HW4_Tanvi_Ranadive/Corpus/Inspection.txt'
p913
aI456
aa(lp914
S'C:/Users/Tanvi/Desktop/HW4_Tanvi_Ranadive/Corpus/InstitutionofEngineeringandTechnologyprofessionalsociety.txt'
p915
aI457
aa(lp916
S'C:/Users/Tanvi/Desktop/HW4_Tanvi_Ranadive/Corpus/IntegralFastReactor.txt'
p917
aI458
aa(lp918
S'C:/Users/Tanvi/Desktop/HW4_Tanvi_Ranadive/Corpus/IntegratedAuthorityFile.txt'
p919
aI459
aa(lp920
S'C:/Users/Tanvi/Desktop/HW4_Tanvi_Ranadive/Corpus/Intermediary.txt'
p921
aI460
aa(lp922
S'C:/Users/Tanvi/Desktop/HW4_Tanvi_Ranadive/Corpus/Intermittency.txt'
p923
aI461
aa(lp924
S'C:/Users/Tanvi/Desktop/HW4_Tanvi_Ranadive/Corpus/Intermittentenergysource.txt'
p925
aI462
aa(lp926
S'C:/Users/Tanvi/Desktop/HW4_Tanvi_Ranadive/Corpus/Internalcombustion.txt'
p927
aI463
aa(lp928
S'C:/Users/Tanvi/Desktop/HW4_Tanvi_Ranadive/Corpus/Internalenergymarket.txt'
p929
aI464
aa(lp930
S'C:/Users/Tanvi/Desktop/HW4_Tanvi_Ranadive/Corpus/InternationalConferenceonPopulationandDevelopment.txt'
p931
aI465
aa(lp932
S'C:/Users/Tanvi/Desktop/HW4_Tanvi_Ranadive/Corpus/InternationalElectrotechnicalCommission.txt'
p933
aI466
aa(lp934
S'C:/Users/Tanvi/Desktop/HW4_Tanvi_Ranadive/Corpus/InternationalEnergyAgency.txt'
p935
aI467
aa(lp936
S'C:/Users/Tanvi/Desktop/HW4_Tanvi_Ranadive/Corpus/InternationalNetworkforSustainableEnergy.txt'
p937
aI468
aa(lp938
S'C:/Users/Tanvi/Desktop/HW4_Tanvi_Ranadive/Corpus/InternationalPartnershipforEnergyEfficiencyCooperation.txt'
p939
aI469
aa(lp940
S'C:/Users/Tanvi/Desktop/HW4_Tanvi_Ranadive/Corpus/InternationalRenewableEnergyAgency.txt'
p941
aI470
aa(lp942
S'C:/Users/Tanvi/Desktop/HW4_Tanvi_Ranadive/Corpus/InternationalStandardBookNumber.txt'
p943
aI471
aa(lp944
S'C:/Users/Tanvi/Desktop/HW4_Tanvi_Ranadive/Corpus/Invasivespecies.txt'
p945
aI472
aa(lp946
S'C:/Users/Tanvi/Desktop/HW4_Tanvi_Ranadive/Corpus/Iran.txt'
p947
aI473
aa(lp948
S'C:/Users/Tanvi/Desktop/HW4_Tanvi_Ranadive/Corpus/Israel.txt'
p949
aI474
aa(lp950
S'C:/Users/Tanvi/Desktop/HW4_Tanvi_Ranadive/Corpus/Italy.txt'
p951
aI475
aa(lp952
S'C:/Users/Tanvi/Desktop/HW4_Tanvi_Ranadive/Corpus/JamesLovelock.txt'
p953
aI476
aa(lp954
S'C:/Users/Tanvi/Desktop/HW4_Tanvi_Ranadive/Corpus/Japan.txt'
p955
aI477
aa(lp956
S'C:/Users/Tanvi/Desktop/HW4_Tanvi_Ranadive/Corpus/Jatrophacurcas.txt'
p957
aI478
aa(lp958
S'C:/Users/Tanvi/Desktop/HW4_Tanvi_Ranadive/Corpus/Jetfuel.txt'
p959
aI479
aa(lp960
S'C:/Users/Tanvi/Desktop/HW4_Tanvi_Ranadive/Corpus/Jevons27paradox.txt'
p961
aI480
aa(lp962
S'C:/Users/Tanvi/Desktop/HW4_Tanvi_Ranadive/Corpus/Jevonsparadox.txt'
p963
aI481
aa(lp964
S'C:/Users/Tanvi/Desktop/HW4_Tanvi_Ranadive/Corpus/JohnA22Skip22Laitner.txt'
p965
aI482
aa(lp966
S'C:/Users/Tanvi/Desktop/HW4_Tanvi_Ranadive/Corpus/JohnsonControls.txt'
p967
aI483
aa(lp968
S'C:/Users/Tanvi/Desktop/HW4_Tanvi_Ranadive/Corpus/JointBioEnergyInstitute.txt'
p969
aI484
aa(lp970
S'C:/Users/Tanvi/Desktop/HW4_Tanvi_Ranadive/Corpus/JonesLangLaSalle.txt'
p971
aI485
aa(lp972
S'C:/Users/Tanvi/Desktop/HW4_Tanvi_Ranadive/Corpus/JosephRomm.txt'
p973
aI486
aa(lp974
S'C:/Users/Tanvi/Desktop/HW4_Tanvi_Ranadive/Corpus/JournalofRenewableandSustainableEnergy.txt'
p975
aI487
aa(lp976
S'C:/Users/Tanvi/Desktop/HW4_Tanvi_Ranadive/Corpus/JSTOR.txt'
p977
aI488
aa(lp978
S'C:/Users/Tanvi/Desktop/HW4_Tanvi_Ranadive/Corpus/KendallCogenerationStation.txt'
p979
aI489
aa(lp980
S'C:/Users/Tanvi/Desktop/HW4_Tanvi_Ranadive/Corpus/KernCountyCalifornia.txt'
p981
aI490
aa(lp982
S'C:/Users/Tanvi/Desktop/HW4_Tanvi_Ranadive/Corpus/KhazzoomE28093Brookespostulate.txt'
p983
aI491
aa(lp984
S'C:/Users/Tanvi/Desktop/HW4_Tanvi_Ranadive/Corpus/Kilowatthour.txt'
p985
aI492
aa(lp986
S'C:/Users/Tanvi/Desktop/HW4_Tanvi_Ranadive/Corpus/Landfillgas.txt'
p987
aI493
aa(lp988
S'C:/Users/Tanvi/Desktop/HW4_Tanvi_Ranadive/Corpus/Latentenergy.txt'
p989
aI494
aa(lp990
S'C:/Users/Tanvi/Desktop/HW4_Tanvi_Ranadive/Corpus/LeadershipinEnergyandEnvironmentalDesign.txt'
p991
aI495
aa(lp992
S'C:/Users/Tanvi/Desktop/HW4_Tanvi_Ranadive/Corpus/LEDlamp.txt'
p993
aI496
aa(lp994
S'C:/Users/Tanvi/Desktop/HW4_Tanvi_Ranadive/Corpus/LEDlights.txt'
p995
aI497
aa(lp996
S'C:/Users/Tanvi/Desktop/HW4_Tanvi_Ranadive/Corpus/LeeSchipper.txt'
p997
aI498
aa(lp998
S'C:/Users/Tanvi/Desktop/HW4_Tanvi_Ranadive/Corpus/Lighting.txt'
p999
aI499
aa(lp1000
S'C:/Users/Tanvi/Desktop/HW4_Tanvi_Ranadive/Corpus/Lignocellulosicbiomass.txt'
p1001
aI500
aa(lp1002
S'C:/Users/Tanvi/Desktop/HW4_Tanvi_Ranadive/Corpus/LincsWindFarm.txt'
p1003
aI501
aa(lp1004
S'C:/Users/Tanvi/Desktop/HW4_Tanvi_Ranadive/Corpus/Liquefiednaturalgas.txt'
p1005
aI502
aa(lp1006
S'C:/Users/Tanvi/Desktop/HW4_Tanvi_Ranadive/Corpus/Liquidnitrogen.txt'
p1007
aI503
aa(lp1008
S'C:/Users/Tanvi/Desktop/HW4_Tanvi_Ranadive/Corpus/LisbonPrinciples.txt'
p1009
aI504
aa(lp1010
S'C:/Users/Tanvi/Desktop/HW4_Tanvi_Ranadive/Corpus/Listofenergystorageprojects.txt'
p1011
aI505
aa(lp1012
S'C:/Users/Tanvi/Desktop/HW4_Tanvi_Ranadive/Corpus/Listofenvironmentaldegrees.txt'
p1013
aI506
aa(lp1014
S'C:/Users/Tanvi/Desktop/HW4_Tanvi_Ranadive/Corpus/Listofleastcarbonefficientpowerstations.txt'
p1015
aI507
aa(lp1016
S'C:/Users/Tanvi/Desktop/HW4_Tanvi_Ranadive/Corpus/Listoflowenergybuildingtechniques.txt'
p1017
aI508
aa(lp1018
S'C:/Users/Tanvi/Desktop/HW4_Tanvi_Ranadive/Corpus/Listofrenewableenergytopicsbycountry.txt'
p1019
aI509
aa(lp1020
S'C:/Users/Tanvi/Desktop/HW4_Tanvi_Ranadive/Corpus/Listofsolidwastetreatmenttechnologies.txt'
p1021
aI510
aa(lp1022
S'C:/Users/Tanvi/Desktop/HW4_Tanvi_Ranadive/Corpus/Listofwastewatertreatmenttechnologies.txt'
p1023
aI511
aa(lp1024
S'C:/Users/Tanvi/Desktop/HW4_Tanvi_Ranadive/Corpus/Loadcurve.txt'
p1025
aI512
aa(lp1026
S'C:/Users/Tanvi/Desktop/HW4_Tanvi_Ranadive/Corpus/Loadfactorelectrical.txt'
p1027
aI513
aa(lp1028
S'C:/Users/Tanvi/Desktop/HW4_Tanvi_Ranadive/Corpus/Loadfollowingpowerplant.txt'
p1029
aI514
aa(lp1030
S'C:/Users/Tanvi/Desktop/HW4_Tanvi_Ranadive/Corpus/Loadmanagement.txt'
p1031
aI515
aa(lp1032
S'C:/Users/Tanvi/Desktop/HW4_Tanvi_Ranadive/Corpus/Localfood.txt'
p1033
aI516
aa(lp1034
S'C:/Users/Tanvi/Desktop/HW4_Tanvi_Ranadive/Corpus/LockheedMartin.txt'
p1035
aI517
aa(lp1036
S'C:/Users/Tanvi/Desktop/HW4_Tanvi_Ranadive/Corpus/LondonArray.txt'
p1037
aI518
aa(lp1038
S'C:/Users/Tanvi/Desktop/HW4_Tanvi_Ranadive/Corpus/LosAngeles.txt'
p1039
aI519
aa(lp1040
S'C:/Users/Tanvi/Desktop/HW4_Tanvi_Ranadive/Corpus/Lowcarbon.txt'
p1041
aI520
aa(lp1042
S'C:/Users/Tanvi/Desktop/HW4_Tanvi_Ranadive/Corpus/LowCarbonCommunities.txt'
p1043
aI521
aa(lp1044
S'C:/Users/Tanvi/Desktop/HW4_Tanvi_Ranadive/Corpus/Lowcarboneconomy.txt'
p1045
aI522
aa(lp1046
S'C:/Users/Tanvi/Desktop/HW4_Tanvi_Ranadive/Corpus/Lowcarbonpower.txt'
p1047
aI523
aa(lp1048
S'C:/Users/Tanvi/Desktop/HW4_Tanvi_Ranadive/Corpus/LowerSnakeRiverWindProject.txt'
p1049
aI524
aa(lp1050
S'C:/Users/Tanvi/Desktop/HW4_Tanvi_Ranadive/Corpus/LowimpactdevelopmentUK.txt'
p1051
aI525
aa(lp1052
S'C:/Users/Tanvi/Desktop/HW4_Tanvi_Ranadive/Corpus/MacarthurWindFarm.txt'
p1053
aI526
aa(lp1054
S'C:/Users/Tanvi/Desktop/HW4_Tanvi_Ranadive/Corpus/MainPage.txt'
p1055
aI527
aa(lp1056
S'C:/Users/Tanvi/Desktop/HW4_Tanvi_Ranadive/Corpus/Mainselectricity.txt'
p1057
aI528
aa(lp1058
S'C:/Users/Tanvi/Desktop/HW4_Tanvi_Ranadive/Corpus/Maize.txt'
p1059
aI529
aa(lp1060
S'C:/Users/Tanvi/Desktop/HW4_Tanvi_Ranadive/Corpus/MalloryPark.txt'
p1061
aI530
aa(lp1062
S'C:/Users/Tanvi/Desktop/HW4_Tanvi_Ranadive/Corpus/Manhattan.txt'
p1063
aI531
aa(lp1064
S'C:/Users/Tanvi/Desktop/HW4_Tanvi_Ranadive/Corpus/Marginalabatementcost.txt'
p1065
aI532
aa(lp1066
S'C:/Users/Tanvi/Desktop/HW4_Tanvi_Ranadive/Corpus/Marinecurrentpower.txt'
p1067
aI533
aa(lp1068
S'C:/Users/Tanvi/Desktop/HW4_Tanvi_Ranadive/Corpus/Marineenergy.txt'
p1069
aI534
aa(lp1070
S'C:/Users/Tanvi/Desktop/HW4_Tanvi_Ranadive/Corpus/Marinefuelmanagement.txt'
p1071
aI535
aa(lp1072
S'C:/Users/Tanvi/Desktop/HW4_Tanvi_Ranadive/Corpus/MarkDiesendorf.txt'
p1073
aI536
aa(lp1074
S'C:/Users/Tanvi/Desktop/HW4_Tanvi_Ranadive/Corpus/Marorka.txt'
p1075
aI537
aa(lp1076
S'C:/Users/Tanvi/Desktop/HW4_Tanvi_Ranadive/Corpus/MasnedC3B8.txt'
p1077
aI538
aa(lp1078
S'C:/Users/Tanvi/Desktop/HW4_Tanvi_Ranadive/Corpus/MassachusettsInstituteofTechnology.txt'
p1079
aI539
aa(lp1080
S'C:/Users/Tanvi/Desktop/HW4_Tanvi_Ranadive/Corpus/Mathematics.txt'
p1081
aI540
aa(lp1082
S'C:/Users/Tanvi/Desktop/HW4_Tanvi_Ranadive/Corpus/Megawatt.txt'
p1083
aI541
aa(lp1084
S'C:/Users/Tanvi/Desktop/HW4_Tanvi_Ranadive/Corpus/Megawatts.txt'
p1085
aI542
aa(lp1086
S'C:/Users/Tanvi/Desktop/HW4_Tanvi_Ranadive/Corpus/MercedesBenzBionic.txt'
p1087
aI543
aa(lp1088
S'C:/Users/Tanvi/Desktop/HW4_Tanvi_Ranadive/Corpus/Methane.txt'
p1089
aI544
aa(lp1090
S'C:/Users/Tanvi/Desktop/HW4_Tanvi_Ranadive/Corpus/Methanol.txt'
p1091
aI545
aa(lp1092
S'C:/Users/Tanvi/Desktop/HW4_Tanvi_Ranadive/Corpus/Methanoleconomy.txt'
p1093
aI546
aa(lp1094
S'C:/Users/Tanvi/Desktop/HW4_Tanvi_Ranadive/Corpus/Metz.txt'
p1095
aI547
aa(lp1096
S'C:/Users/Tanvi/Desktop/HW4_Tanvi_Ranadive/Corpus/MHDgenerator.txt'
p1097
aI548
aa(lp1098
S'C:/Users/Tanvi/Desktop/HW4_Tanvi_Ranadive/Corpus/MicroCHP.txt'
p1099
aI549
aa(lp1100
S'C:/Users/Tanvi/Desktop/HW4_Tanvi_Ranadive/Corpus/Microcombinedheatandpower.txt'
p1101
aI550
aa(lp1102
S'C:/Users/Tanvi/Desktop/HW4_Tanvi_Ranadive/Corpus/Microgeneration.txt'
p1103
aI551
aa(lp1104
S'C:/Users/Tanvi/Desktop/HW4_Tanvi_Ranadive/Corpus/Microturbines.txt'
p1105
aI552
aa(lp1106
S'C:/Users/Tanvi/Desktop/HW4_Tanvi_Ranadive/Corpus/Minimumenergyperformancestandard.txt'
p1107
aI553
aa(lp1108
S'C:/Users/Tanvi/Desktop/HW4_Tanvi_Ranadive/Corpus/Miscanthus.txt'
p1109
aI554
aa(lp1110
S'C:/Users/Tanvi/Desktop/HW4_Tanvi_Ranadive/Corpus/Moltencarbonatefuelcell.txt'
p1111
aI555
aa(lp1112
S'C:/Users/Tanvi/Desktop/HW4_Tanvi_Ranadive/Corpus/MorningEdition.txt'
p1113
aI556
aa(lp1114
S'C:/Users/Tanvi/Desktop/HW4_Tanvi_Ranadive/Corpus/Moscow.txt'
p1115
aI557
aa(lp1116
S'C:/Users/Tanvi/Desktop/HW4_Tanvi_Ranadive/Corpus/Motorsport.txt'
p1117
aI558
aa(lp1118
S'C:/Users/Tanvi/Desktop/HW4_Tanvi_Ranadive/Corpus/MotorSportVision.txt'
p1119
aI559
aa(lp1120
S'C:/Users/Tanvi/Desktop/HW4_Tanvi_Ranadive/Corpus/Ms.txt'
p1121
aI560
aa(lp1122
S'C:/Users/Tanvi/Desktop/HW4_Tanvi_Ranadive/Corpus/Municipalsolidwaste.txt'
p1123
aI561
aa(lp1124
S'C:/Users/Tanvi/Desktop/HW4_Tanvi_Ranadive/Corpus/Nameplatecapacity.txt'
p1125
aI562
aa(lp1126
S'C:/Users/Tanvi/Desktop/HW4_Tanvi_Ranadive/Corpus/Nanosolar.txt'
p1127
aI563
aa(lp1128
S'C:/Users/Tanvi/Desktop/HW4_Tanvi_Ranadive/Corpus/Nanotechnology.txt'
p1129
aI564
aa(lp1130
S'C:/Users/Tanvi/Desktop/HW4_Tanvi_Ranadive/Corpus/NASA.txt'
p1131
aI565
aa(lp1132
S'C:/Users/Tanvi/Desktop/HW4_Tanvi_Ranadive/Corpus/Nation.txt'
p1133
aI566
aa(lp1134
S'C:/Users/Tanvi/Desktop/HW4_Tanvi_Ranadive/Corpus/NationalDevelopmentandReformCommission.txt'
p1135
aI567
aa(lp1136
S'C:/Users/Tanvi/Desktop/HW4_Tanvi_Ranadive/Corpus/NationalDietLibrary.txt'
p1137
aI568
aa(lp1138
S'C:/Users/Tanvi/Desktop/HW4_Tanvi_Ranadive/Corpus/NationalEnergyAction.txt'
p1139
aI569
aa(lp1140
S'C:/Users/Tanvi/Desktop/HW4_Tanvi_Ranadive/Corpus/NationalEnergyFoundation.txt'
p1141
aI570
aa(lp1142
S'C:/Users/Tanvi/Desktop/HW4_Tanvi_Ranadive/Corpus/NationalPublicRadio.txt'
p1143
aI571
aa(lp1144
S'C:/Users/Tanvi/Desktop/HW4_Tanvi_Ranadive/Corpus/NationalRenewableEnergyLaboratory.txt'
p1145
aI572
aa(lp1146
S'C:/Users/Tanvi/Desktop/HW4_Tanvi_Ranadive/Corpus/Nationalsecurity.txt'
p1147
aI573
aa(lp1148
S'C:/Users/Tanvi/Desktop/HW4_Tanvi_Ranadive/Corpus/Naturalbuilding.txt'
p1149
aI574
aa(lp1150
S'C:/Users/Tanvi/Desktop/HW4_Tanvi_Ranadive/Corpus/Naturalenvironment.txt'
p1151
aI575
aa(lp1152
S'C:/Users/Tanvi/Desktop/HW4_Tanvi_Ranadive/Corpus/Naturalgas.txt'
p1153
aI576
aa(lp1154
S'C:/Users/Tanvi/Desktop/HW4_Tanvi_Ranadive/Corpus/Naturalgaspowerplant.txt'
p1155
aI577
aa(lp1156
S'C:/Users/Tanvi/Desktop/HW4_Tanvi_Ranadive/Corpus/Naturalmaterial.txt'
p1157
aI578
aa(lp1158
S'C:/Users/Tanvi/Desktop/HW4_Tanvi_Ranadive/Corpus/Naturalresourcemanagement.txt'
p1159
aI579
aa(lp1160
S'C:/Users/Tanvi/Desktop/HW4_Tanvi_Ranadive/Corpus/NaturalResourcesCanada.txt'
p1161
aI580
aa(lp1162
S'C:/Users/Tanvi/Desktop/HW4_Tanvi_Ranadive/Corpus/NButanol.txt'
p1163
aI581
aa(lp1164
S'C:/Users/Tanvi/Desktop/HW4_Tanvi_Ranadive/Corpus/Neatalcoholfuel.txt'
p1165
aI582
aa(lp1166
S'C:/Users/Tanvi/Desktop/HW4_Tanvi_Ranadive/Corpus/Negativecarbondioxideemission.txt'
p1167
aI583
aa(lp1168
S'C:/Users/Tanvi/Desktop/HW4_Tanvi_Ranadive/Corpus/Negawatt.txt'
p1169
aI584
aa(lp1170
S'C:/Users/Tanvi/Desktop/HW4_Tanvi_Ranadive/Corpus/Negawattpower.txt'
p1171
aI585
aa(lp1172
S'C:/Users/Tanvi/Desktop/HW4_Tanvi_Ranadive/Corpus/NellisSolarPowerPlant.txt'
p1173
aI586
aa(lp1174
S'C:/Users/Tanvi/Desktop/HW4_Tanvi_Ranadive/Corpus/Nepal.txt'
p1175
aI587
aa(lp1176
S'C:/Users/Tanvi/Desktop/HW4_Tanvi_Ranadive/Corpus/Netherlands.txt'
p1177
aI588
aa(lp1178
S'C:/Users/Tanvi/Desktop/HW4_Tanvi_Ranadive/Corpus/Netmetering.txt'
p1179
aI589
aa(lp1180
S'C:/Users/Tanvi/Desktop/HW4_Tanvi_Ranadive/Corpus/NevadaSolarOne.txt'
p1181
aI590
aa(lp1182
S'C:/Users/Tanvi/Desktop/HW4_Tanvi_Ranadive/Corpus/NewcastleUniversity.txt'
p1183
aI591
aa(lp1184
S'C:/Users/Tanvi/Desktop/HW4_Tanvi_Ranadive/Corpus/NewClassicalArchitecture.txt'
p1185
aI592
aa(lp1186
S'C:/Users/Tanvi/Desktop/HW4_Tanvi_Ranadive/Corpus/NewquayCornwallAirport.txt'
p1187
aI593
aa(lp1188
S'C:/Users/Tanvi/Desktop/HW4_Tanvi_Ranadive/Corpus/NewUrbanism.txt'
p1189
aI594
aa(lp1190
S'C:/Users/Tanvi/Desktop/HW4_Tanvi_Ranadive/Corpus/NewYorkCitysteamsystem.txt'
p1191
aI595
aa(lp1192
S'C:/Users/Tanvi/Desktop/HW4_Tanvi_Ranadive/Corpus/NewZealand.txt'
p1193
aI596
aa(lp1194
S'C:/Users/Tanvi/Desktop/HW4_Tanvi_Ranadive/Corpus/NicolaArmaroli.txt'
p1195
aI597
aa(lp1196
S'C:/Users/Tanvi/Desktop/HW4_Tanvi_Ranadive/Corpus/Nonrenewableenergy.txt'
p1197
aI598
aa(lp1198
S'C:/Users/Tanvi/Desktop/HW4_Tanvi_Ranadive/Corpus/NorthAmericancollegiatesustainabilityprograms.txt'
p1199
aI599
aa(lp1200
S'C:/Users/Tanvi/Desktop/HW4_Tanvi_Ranadive/Corpus/NorthKivu.txt'
p1201
aI600
aa(lp1202
S'C:/Users/Tanvi/Desktop/HW4_Tanvi_Ranadive/Corpus/NREL.txt'
p1203
aI601
aa(lp1204
S'C:/Users/Tanvi/Desktop/HW4_Tanvi_Ranadive/Corpus/Nuclearfusion.txt'
p1205
aI602
aa(lp1206
S'C:/Users/Tanvi/Desktop/HW4_Tanvi_Ranadive/Corpus/Nuclearpower.txt'
p1207
aI603
aa(lp1208
S'C:/Users/Tanvi/Desktop/HW4_Tanvi_Ranadive/Corpus/Nuclearpowerplant.txt'
p1209
aI604
aa(lp1210
S'C:/Users/Tanvi/Desktop/HW4_Tanvi_Ranadive/Corpus/Nuclearproliferation.txt'
p1211
aI605
aa(lp1212
S'C:/Users/Tanvi/Desktop/HW4_Tanvi_Ranadive/Corpus/Nuclearreprocessing.txt'
p1213
aI606
aa(lp1214
S'C:/Users/Tanvi/Desktop/HW4_Tanvi_Ranadive/Corpus/Nucleartransmutation.txt'
p1215
aI607
aa(lp1216
S'C:/Users/Tanvi/Desktop/HW4_Tanvi_Ranadive/Corpus/Oceanenergy.txt'
p1217
aI608
aa(lp1218
S'C:/Users/Tanvi/Desktop/HW4_Tanvi_Ranadive/Corpus/Oceanthermalenergy.txt'
p1219
aI609
aa(lp1220
S'C:/Users/Tanvi/Desktop/HW4_Tanvi_Ranadive/Corpus/Ofgem.txt'
p1221
aI610
aa(lp1222
S'C:/Users/Tanvi/Desktop/HW4_Tanvi_Ranadive/Corpus/Oil.txt'
p1223
aI611
aa(lp1224
S'C:/Users/Tanvi/Desktop/HW4_Tanvi_Ranadive/Corpus/Oilpalm.txt'
p1225
aI612
aa(lp1226
S'C:/Users/Tanvi/Desktop/HW4_Tanvi_Ranadive/Corpus/Oilpriceincreasessince2003.txt'
p1227
aI613
aa(lp1228
S'C:/Users/Tanvi/Desktop/HW4_Tanvi_Ranadive/Corpus/Oilshale.txt'
p1229
aI614
aa(lp1230
S'C:/Users/Tanvi/Desktop/HW4_Tanvi_Ranadive/Corpus/OneWattInitiative.txt'
p1231
aI615
aa(lp1232
S'C:/Users/Tanvi/Desktop/HW4_Tanvi_Ranadive/Corpus/OneWorldTradeCenter.txt'
p1233
aI616
aa(lp1234
S'C:/Users/Tanvi/Desktop/HW4_Tanvi_Ranadive/Corpus/Orgalime.txt'
p1235
aI617
aa(lp1236
S'C:/Users/Tanvi/Desktop/HW4_Tanvi_Ranadive/Corpus/Organizingprinciple.txt'
p1237
aI618
aa(lp1238
S'C:/Users/Tanvi/Desktop/HW4_Tanvi_Ranadive/Corpus/Osmoticpower.txt'
p1239
aI619
aa(lp1240
S'C:/Users/Tanvi/Desktop/HW4_Tanvi_Ranadive/Corpus/OurCommonFuture.txt'
p1241
aI620
aa(lp1242
S'C:/Users/Tanvi/Desktop/HW4_Tanvi_Ranadive/Corpus/Outlineofsustainability.txt'
p1243
aI621
aa(lp1244
S'C:/Users/Tanvi/Desktop/HW4_Tanvi_Ranadive/Corpus/Oven.txt'
p1245
aI622
aa(lp1246
S'C:/Users/Tanvi/Desktop/HW4_Tanvi_Ranadive/Corpus/Overconsumption.txt'
p1247
aI623
aa(lp1248
S'C:/Users/Tanvi/Desktop/HW4_Tanvi_Ranadive/Corpus/Overillumination.txt'
p1249
aI624
aa(lp1250
S'C:/Users/Tanvi/Desktop/HW4_Tanvi_Ranadive/Corpus/Oxygen.txt'
p1251
aI625
aa(lp1252
S'C:/Users/Tanvi/Desktop/HW4_Tanvi_Ranadive/Corpus/Oxyhydrogen.txt'
p1253
aI626
aa(lp1254
S'C:/Users/Tanvi/Desktop/HW4_Tanvi_Ranadive/Corpus/PacifiCorp.txt'
p1255
aI627
aa(lp1256
S'C:/Users/Tanvi/Desktop/HW4_Tanvi_Ranadive/Corpus/Palmoil.txt'
p1257
aI628
aa(lp1258
S'C:/Users/Tanvi/Desktop/HW4_Tanvi_Ranadive/Corpus/Papermill.txt'
p1259
aI629
aa(lp1260
S'C:/Users/Tanvi/Desktop/HW4_Tanvi_Ranadive/Corpus/Passengermilespergallon.txt'
p1261
aI630
aa(lp1262
S'C:/Users/Tanvi/Desktop/HW4_Tanvi_Ranadive/Corpus/Passivehouse.txt'
p1263
aI631
aa(lp1264
S'C:/Users/Tanvi/Desktop/HW4_Tanvi_Ranadive/Corpus/Passivesolarbuildingdesign.txt'
p1265
aI632
aa(lp1266
S'C:/Users/Tanvi/Desktop/HW4_Tanvi_Ranadive/Corpus/Passivesolarheating.txt'
p1267
aI633
aa(lp1268
S'C:/Users/Tanvi/Desktop/HW4_Tanvi_Ranadive/Corpus/PatrickMooreenvironmentalist.txt'
p1269
aI634
aa(lp1270
S'C:/Users/Tanvi/Desktop/HW4_Tanvi_Ranadive/Corpus/PaulJamesacademic.txt'
p1271
aI635
aa(lp1272
S'C:/Users/Tanvi/Desktop/HW4_Tanvi_Ranadive/Corpus/Peakdemand.txt'
p1273
aI636
aa(lp1274
S'C:/Users/Tanvi/Desktop/HW4_Tanvi_Ranadive/Corpus/Peakoil.txt'
p1275
aI637
aa(lp1276
S'C:/Users/Tanvi/Desktop/HW4_Tanvi_Ranadive/Corpus/PearlStreetStation.txt'
p1277
aI638
aa(lp1278
S'C:/Users/Tanvi/Desktop/HW4_Tanvi_Ranadive/Corpus/PearsonPLC.txt'
p1279
aI639
aa(lp1280
S'C:/Users/Tanvi/Desktop/HW4_Tanvi_Ranadive/Corpus/PelamisWaveEnergyConverter.txt'
p1281
aI640
aa(lp1282
S'C:/Users/Tanvi/Desktop/HW4_Tanvi_Ranadive/Corpus/Performanceperwatt.txt'
p1283
aI641
aa(lp1284
S'C:/Users/Tanvi/Desktop/HW4_Tanvi_Ranadive/Corpus/Permaculture.txt'
p1285
aI642
aa(lp1286
S'C:/Users/Tanvi/Desktop/HW4_Tanvi_Ranadive/Corpus/Personalcarbontrading.txt'
p1287
aI643
aa(lp1288
S'C:/Users/Tanvi/Desktop/HW4_Tanvi_Ranadive/Corpus/Personaldevelopment.txt'
p1289
aI644
aa(lp1290
S'C:/Users/Tanvi/Desktop/HW4_Tanvi_Ranadive/Corpus/Personalsecurity.txt'
p1291
aI645
aa(lp1292
S'C:/Users/Tanvi/Desktop/HW4_Tanvi_Ranadive/Corpus/Petroleum.txt'
p1293
aI646
aa(lp1294
S'C:/Users/Tanvi/Desktop/HW4_Tanvi_Ranadive/Corpus/PetroleumConservationResearchAssociation.txt'
p1295
aI647
aa(lp1296
S'C:/Users/Tanvi/Desktop/HW4_Tanvi_Ranadive/Corpus/Phasechangematerial.txt'
p1297
aI648
aa(lp1298
S'C:/Users/Tanvi/Desktop/HW4_Tanvi_Ranadive/Corpus/Phaseoutofincandescentlightbulbs.txt'
p1299
aI649
aa(lp1300
S'C:/Users/Tanvi/Desktop/HW4_Tanvi_Ranadive/Corpus/Philippines.txt'
p1301
aI650
aa(lp1302
S'C:/Users/Tanvi/Desktop/HW4_Tanvi_Ranadive/Corpus/PhilosophicalTransactionsoftheRoyalSocietyA.txt'
p1303
aI651
aa(lp1304
S'C:/Users/Tanvi/Desktop/HW4_Tanvi_Ranadive/Corpus/PhilRadford.txt'
p1305
aI652
aa(lp1306
S'C:/Users/Tanvi/Desktop/HW4_Tanvi_Ranadive/Corpus/Photovoltaic.txt'
p1307
aI653
aa(lp1308
S'C:/Users/Tanvi/Desktop/HW4_Tanvi_Ranadive/Corpus/Photovoltaicpowerstations.txt'
p1309
aI654
aa(lp1310
S'C:/Users/Tanvi/Desktop/HW4_Tanvi_Ranadive/Corpus/Photovoltaicsystem.txt'
p1311
aI655
aa(lp1312
S'C:/Users/Tanvi/Desktop/HW4_Tanvi_Ranadive/Corpus/Pigoviantax.txt'
p1313
aI656
aa(lp1314
S'C:/Users/Tanvi/Desktop/HW4_Tanvi_Ranadive/Corpus/Pipelinetransport.txt'
p1315
aI657
aa(lp1316
S'C:/Users/Tanvi/Desktop/HW4_Tanvi_Ranadive/Corpus/Piracicaba.txt'
p1317
aI658
aa(lp1318
S'C:/Users/Tanvi/Desktop/HW4_Tanvi_Ranadive/Corpus/Planetaryboundaries.txt'
p1319
aI659
aa(lp1320
S'C:/Users/Tanvi/Desktop/HW4_Tanvi_Ranadive/Corpus/Planetarymanagement.txt'
p1321
aI660
aa(lp1322
S'C:/Users/Tanvi/Desktop/HW4_Tanvi_Ranadive/Corpus/Pluginhybrid.txt'
p1323
aI661
aa(lp1324
S'C:/Users/Tanvi/Desktop/HW4_Tanvi_Ranadive/Corpus/Plutonium.txt'
p1325
aI662
aa(lp1326
S'C:/Users/Tanvi/Desktop/HW4_Tanvi_Ranadive/Corpus/Poland.txt'
p1327
aI663
aa(lp1328
S'C:/Users/Tanvi/Desktop/HW4_Tanvi_Ranadive/Corpus/Pollution.txt'
p1329
aI664
aa(lp1330
S'C:/Users/Tanvi/Desktop/HW4_Tanvi_Ranadive/Corpus/Pollutionhavenhypothesis.txt'
p1331
aI665
aa(lp1332
S'C:/Users/Tanvi/Desktop/HW4_Tanvi_Ranadive/Corpus/Population.txt'
p1333
aI666
aa(lp1334
S'C:/Users/Tanvi/Desktop/HW4_Tanvi_Ranadive/Corpus/Populationgrowth.txt'
p1335
aI667
aa(lp1336
S'C:/Users/Tanvi/Desktop/HW4_Tanvi_Ranadive/Corpus/Populus.txt'
p1337
aI668
aa(lp1338
S'C:/Users/Tanvi/Desktop/HW4_Tanvi_Ranadive/Corpus/Portugal.txt'
p1339
aI669
aa(lp1340
S'C:/Users/Tanvi/Desktop/HW4_Tanvi_Ranadive/Corpus/Poundsterling.txt'
p1341
aI670
aa(lp1342
S'C:/Users/Tanvi/Desktop/HW4_Tanvi_Ranadive/Corpus/Powerflowstudy.txt'
p1343
aI671
aa(lp1344
S'C:/Users/Tanvi/Desktop/HW4_Tanvi_Ranadive/Corpus/Poweroutage.txt'
p1345
aI672
aa(lp1346
S'C:/Users/Tanvi/Desktop/HW4_Tanvi_Ranadive/Corpus/Powerplant.txt'
p1347
aI673
aa(lp1348
S'C:/Users/Tanvi/Desktop/HW4_Tanvi_Ranadive/Corpus/Powerstation.txt'
p1349
aI674
aa(lp1350
S'C:/Users/Tanvi/Desktop/HW4_Tanvi_Ranadive/Corpus/Powerstorage.txt'
p1351
aI675
aa(lp1352
S'C:/Users/Tanvi/Desktop/HW4_Tanvi_Ranadive/Corpus/Powerusageeffectiveness.txt'
p1353
aI676
aa(lp1354
S'C:/Users/Tanvi/Desktop/HW4_Tanvi_Ranadive/Corpus/Processcontrol.txt'
p1355
aI677
aa(lp1356
S'C:/Users/Tanvi/Desktop/HW4_Tanvi_Ranadive/Corpus/Prodrive.txt'
p1357
aI678
aa(lp1358
S'C:/Users/Tanvi/Desktop/HW4_Tanvi_Ranadive/Corpus/ProvinceofPavia.txt'
p1359
aI679
aa(lp1360
S'C:/Users/Tanvi/Desktop/HW4_Tanvi_Ranadive/Corpus/PublicE28093privatepartnership.txt'
p1361
aI680
aa(lp1362
S'C:/Users/Tanvi/Desktop/HW4_Tanvi_Ranadive/Corpus/Publicutility.txt'
p1363
aI681
aa(lp1364
S'C:/Users/Tanvi/Desktop/HW4_Tanvi_Ranadive/Corpus/PublicUtilityRegulatoryPoliciesAct.txt'
p1365
aI682
aa(lp1366
S'C:/Users/Tanvi/Desktop/HW4_Tanvi_Ranadive/Corpus/PubMedIdentifier.txt'
p1367
aI683
aa(lp1368
S'C:/Users/Tanvi/Desktop/HW4_Tanvi_Ranadive/Corpus/Pulpandpapermill.txt'
p1369
aI684
aa(lp1370
S'C:/Users/Tanvi/Desktop/HW4_Tanvi_Ranadive/Corpus/Pumpedstoragehydroelectricity.txt'
p1371
aI685
aa(lp1372
S'C:/Users/Tanvi/Desktop/HW4_Tanvi_Ranadive/Corpus/Pumps.txt'
p1373
aI686
aa(lp1374
S'C:/Users/Tanvi/Desktop/HW4_Tanvi_Ranadive/Corpus/Quietrevolutionwindturbine.txt'
p1375
aI687
aa(lp1376
S'C:/Users/Tanvi/Desktop/HW4_Tanvi_Ranadive/Corpus/Radioactivewaste.txt'
p1377
aI688
aa(lp1378
S'C:/Users/Tanvi/Desktop/HW4_Tanvi_Ranadive/Corpus/Rankinecycle.txt'
p1379
aI689
aa(lp1380
S'C:/Users/Tanvi/Desktop/HW4_Tanvi_Ranadive/Corpus/Reboundeffectconservation.txt'
p1381
aI690
aa(lp1382
S'C:/Users/Tanvi/Desktop/HW4_Tanvi_Ranadive/Corpus/Reciprocatingengine.txt'
p1383
aI691
aa(lp1384
S'C:/Users/Tanvi/Desktop/HW4_Tanvi_Ranadive/Corpus/Recycling.txt'
p1385
aI692
aa(lp1386
S'C:/Users/Tanvi/Desktop/HW4_Tanvi_Ranadive/Corpus/Refrigeration.txt'
p1387
aI693
aa(lp1388
S'C:/Users/Tanvi/Desktop/HW4_Tanvi_Ranadive/Corpus/Regenerativebraking.txt'
p1389
aI694
aa(lp1390
S'C:/Users/Tanvi/Desktop/HW4_Tanvi_Ranadive/Corpus/Remoteareapowersupply.txt'
p1391
aI695
aa(lp1392
S'C:/Users/Tanvi/Desktop/HW4_Tanvi_Ranadive/Corpus/RenewableandSustainableEnergyReviews.txt'
p1393
aI696
aa(lp1394
S'C:/Users/Tanvi/Desktop/HW4_Tanvi_Ranadive/Corpus/Renewableelectricity.txt'
p1395
aI697
aa(lp1396
S'C:/Users/Tanvi/Desktop/HW4_Tanvi_Ranadive/Corpus/Renewableenergy.txt'
p1397
aI698
aa(lp1398
S'C:/Users/Tanvi/Desktop/HW4_Tanvi_Ranadive/Corpus/RenewableEnergyandEnergyEfficiencyPartnership.txt'
p1399
aI699
aa(lp1400
S'C:/Users/Tanvi/Desktop/HW4_Tanvi_Ranadive/Corpus/RenewableEnergyCertificate.txt'
p1401
aI700
aa(lp1402
S'C:/Users/Tanvi/Desktop/HW4_Tanvi_Ranadive/Corpus/RenewableEnergyCertificates.txt'
p1403
aI701
aa(lp1404
S'C:/Users/Tanvi/Desktop/HW4_Tanvi_Ranadive/Corpus/Renewableenergycommercialization.txt'
p1405
aI702
aa(lp1406
S'C:/Users/Tanvi/Desktop/HW4_Tanvi_Ranadive/Corpus/RenewableenergyinAfghanistan.txt'
p1407
aI703
aa(lp1408
S'C:/Users/Tanvi/Desktop/HW4_Tanvi_Ranadive/Corpus/RenewableenergyinAfrica.txt'
p1409
aI704
aa(lp1410
S'C:/Users/Tanvi/Desktop/HW4_Tanvi_Ranadive/Corpus/RenewableenergyinAlbania.txt'
p1411
aI705
aa(lp1412
S'C:/Users/Tanvi/Desktop/HW4_Tanvi_Ranadive/Corpus/RenewableenergyinArgentina.txt'
p1413
aI706
aa(lp1414
S'C:/Users/Tanvi/Desktop/HW4_Tanvi_Ranadive/Corpus/RenewableenergyinAsia.txt'
p1415
aI707
aa(lp1416
S'C:/Users/Tanvi/Desktop/HW4_Tanvi_Ranadive/Corpus/RenewableenergyinAustralia.txt'
p1417
aI708
aa(lp1418
S'C:/Users/Tanvi/Desktop/HW4_Tanvi_Ranadive/Corpus/RenewableenergyinBangladesh.txt'
p1419
aI709
aa(lp1420
S'C:/Users/Tanvi/Desktop/HW4_Tanvi_Ranadive/Corpus/RenewableenergyinBrazil.txt'
p1421
aI710
aa(lp1422
S'C:/Users/Tanvi/Desktop/HW4_Tanvi_Ranadive/Corpus/RenewableenergyinCanada.txt'
p1423
aI711
aa(lp1424
S'C:/Users/Tanvi/Desktop/HW4_Tanvi_Ranadive/Corpus/RenewableenergyinChile.txt'
p1425
aI712
aa(lp1426
S'C:/Users/Tanvi/Desktop/HW4_Tanvi_Ranadive/Corpus/RenewableenergyinChina.txt'
p1427
aI713
aa(lp1428
S'C:/Users/Tanvi/Desktop/HW4_Tanvi_Ranadive/Corpus/RenewableenergyinColombia.txt'
p1429
aI714
aa(lp1430
S'C:/Users/Tanvi/Desktop/HW4_Tanvi_Ranadive/Corpus/RenewableenergyinCostaRica.txt'
p1431
aI715
aa(lp1432
S'C:/Users/Tanvi/Desktop/HW4_Tanvi_Ranadive/Corpus/RenewableenergyinDenmark.txt'
p1433
aI716
aa(lp1434
S'C:/Users/Tanvi/Desktop/HW4_Tanvi_Ranadive/Corpus/RenewableenergyinEthiopia.txt'
p1435
aI717
aa(lp1436
S'C:/Users/Tanvi/Desktop/HW4_Tanvi_Ranadive/Corpus/RenewableenergyinFinland.txt'
p1437
aI718
aa(lp1438
S'C:/Users/Tanvi/Desktop/HW4_Tanvi_Ranadive/Corpus/RenewableenergyinGermany.txt'
p1439
aI719
aa(lp1440
S'C:/Users/Tanvi/Desktop/HW4_Tanvi_Ranadive/Corpus/RenewableenergyinGreece.txt'
p1441
aI720
aa(lp1442
S'C:/Users/Tanvi/Desktop/HW4_Tanvi_Ranadive/Corpus/RenewableenergyinHonduras.txt'
p1443
aI721
aa(lp1444
S'C:/Users/Tanvi/Desktop/HW4_Tanvi_Ranadive/Corpus/RenewableenergyinIceland.txt'
p1445
aI722
aa(lp1446
S'C:/Users/Tanvi/Desktop/HW4_Tanvi_Ranadive/Corpus/RenewableenergyinIndia.txt'
p1447
aI723
aa(lp1448
S'C:/Users/Tanvi/Desktop/HW4_Tanvi_Ranadive/Corpus/RenewableenergyinItaly.txt'
p1449
aI724
aa(lp1450
S'C:/Users/Tanvi/Desktop/HW4_Tanvi_Ranadive/Corpus/RenewableenergyinKazakhstan.txt'
p1451
aI725
aa(lp1452
S'C:/Users/Tanvi/Desktop/HW4_Tanvi_Ranadive/Corpus/RenewableenergyinKenya.txt'
p1453
aI726
aa(lp1454
S'C:/Users/Tanvi/Desktop/HW4_Tanvi_Ranadive/Corpus/RenewableenergyinLithuania.txt'
p1455
aI727
aa(lp1456
S'C:/Users/Tanvi/Desktop/HW4_Tanvi_Ranadive/Corpus/RenewableenergyinLuxembourg.txt'
p1457
aI728
aa(lp1458
S'C:/Users/Tanvi/Desktop/HW4_Tanvi_Ranadive/Corpus/RenewableenergyinMexico.txt'
p1459
aI729
aa(lp1460
S'C:/Users/Tanvi/Desktop/HW4_Tanvi_Ranadive/Corpus/RenewableenergyinMorocco.txt'
p1461
aI730
aa(lp1462
S'C:/Users/Tanvi/Desktop/HW4_Tanvi_Ranadive/Corpus/RenewableenergyinNepal.txt'
p1463
aI731
aa(lp1464
S'C:/Users/Tanvi/Desktop/HW4_Tanvi_Ranadive/Corpus/RenewableenergyinNewZealand.txt'
p1465
aI732
aa(lp1466
S'C:/Users/Tanvi/Desktop/HW4_Tanvi_Ranadive/Corpus/RenewableenergyinNorway.txt'
p1467
aI733
aa(lp1468
S'C:/Users/Tanvi/Desktop/HW4_Tanvi_Ranadive/Corpus/RenewableenergyinPakistan.txt'
p1469
aI734
aa(lp1470
S'C:/Users/Tanvi/Desktop/HW4_Tanvi_Ranadive/Corpus/RenewableenergyinPortugal.txt'
p1471
aI735
aa(lp1472
S'C:/Users/Tanvi/Desktop/HW4_Tanvi_Ranadive/Corpus/RenewableenergyinRussia.txt'
p1473
aI736
aa(lp1474
S'C:/Users/Tanvi/Desktop/HW4_Tanvi_Ranadive/Corpus/RenewableenergyinSeychelles.txt'
p1475
aI737
aa(lp1476
S'C:/Users/Tanvi/Desktop/HW4_Tanvi_Ranadive/Corpus/RenewableenergyinSpain.txt'
p1477
aI738
aa(lp1478
S'C:/Users/Tanvi/Desktop/HW4_Tanvi_Ranadive/Corpus/RenewableenergyinSweden.txt'
p1479
aI739
aa(lp1480
S'C:/Users/Tanvi/Desktop/HW4_Tanvi_Ranadive/Corpus/RenewableenergyinTaiwan.txt'
p1481
aI740
aa(lp1482
S'C:/Users/Tanvi/Desktop/HW4_Tanvi_Ranadive/Corpus/RenewableenergyinThailand.txt'
p1483
aI741
aa(lp1484
S'C:/Users/Tanvi/Desktop/HW4_Tanvi_Ranadive/Corpus/RenewableenergyintheCzechRepublic.txt'
p1485
aI742
aa(lp1486
S'C:/Users/Tanvi/Desktop/HW4_Tanvi_Ranadive/Corpus/RenewableenergyintheEuropeanUnion.txt'
p1487
aI743
aa(lp1488
S'C:/Users/Tanvi/Desktop/HW4_Tanvi_Ranadive/Corpus/RenewableenergyintheNetherlands.txt'
p1489
aI744
aa(lp1490
S'C:/Users/Tanvi/Desktop/HW4_Tanvi_Ranadive/Corpus/RenewableenergyinthePhilippines.txt'
p1491
aI745
aa(lp1492
S'C:/Users/Tanvi/Desktop/HW4_Tanvi_Ranadive/Corpus/RenewableenergyintheUnitedKingdom.txt'
p1493
aI746
aa(lp1494
S'C:/Users/Tanvi/Desktop/HW4_Tanvi_Ranadive/Corpus/RenewableenergyintheUnitedStates.txt'
p1495
aI747
aa(lp1496
S'C:/Users/Tanvi/Desktop/HW4_Tanvi_Ranadive/Corpus/RenewableenergyinTuvalu.txt'
p1497
aI748
aa(lp1498
S'C:/Users/Tanvi/Desktop/HW4_Tanvi_Ranadive/Corpus/RenewableEnergyjournal.txt'
p1499
aI749
aa(lp1500
S'C:/Users/Tanvi/Desktop/HW4_Tanvi_Ranadive/Corpus/Renewableenergypayments.txt'
p1501
aI750
aa(lp1502
S'C:/Users/Tanvi/Desktop/HW4_Tanvi_Ranadive/Corpus/Renewableenergypolicy.txt'
p1503
aI751
aa(lp1504
S'C:/Users/Tanvi/Desktop/HW4_Tanvi_Ranadive/Corpus/Renewableheat.txt'
p1505
aI752
aa(lp1506
S'C:/Users/Tanvi/Desktop/HW4_Tanvi_Ranadive/Corpus/Renishawplc.txt'
p1507
aI753
aa(lp1508
S'C:/Users/Tanvi/Desktop/HW4_Tanvi_Ranadive/Corpus/Repowering.txt'
p1509
aI754
aa(lp1510
S'C:/Users/Tanvi/Desktop/HW4_Tanvi_Ranadive/Corpus/Resourcedepletion.txt'
p1511
aI755
aa(lp1512
S'C:/Users/Tanvi/Desktop/HW4_Tanvi_Ranadive/Corpus/Resourceefficient.txt'
p1513
aI756
aa(lp1514
S'C:/Users/Tanvi/Desktop/HW4_Tanvi_Ranadive/Corpus/RioDeclarationonEnvironmentandDevelopment.txt'
p1515
aI757
aa(lp1516
S'C:/Users/Tanvi/Desktop/HW4_Tanvi_Ranadive/Corpus/RockinghamMotorSpeedway.txt'
p1517
aI758
aa(lp1518
S'C:/Users/Tanvi/Desktop/HW4_Tanvi_Ranadive/Corpus/RockyMountainInstitute.txt'
p1519
aI759
aa(lp1520
S'C:/Users/Tanvi/Desktop/HW4_Tanvi_Ranadive/Corpus/RockyMountainPower.txt'
p1521
aI760
aa(lp1522
S'C:/Users/Tanvi/Desktop/HW4_Tanvi_Ranadive/Corpus/Rollingblackout.txt'
p1523
aI761
aa(lp1524
S'C:/Users/Tanvi/Desktop/HW4_Tanvi_Ranadive/Corpus/RotaryRacer.txt'
p1525
aI762
aa(lp1526
S'C:/Users/Tanvi/Desktop/HW4_Tanvi_Ranadive/Corpus/RoyalCommissionfortheExhibitionof1851.txt'
p1527
aI763
aa(lp1528
S'C:/Users/Tanvi/Desktop/HW4_Tanvi_Ranadive/Corpus/RoyalSocietyofChemistry.txt'
p1529
aI764
aa(lp1530
S'C:/Users/Tanvi/Desktop/HW4_Tanvi_Ranadive/Corpus/Runoftheriverhydroelectricity.txt'
p1531
aI765
aa(lp1532
S'C:/Users/Tanvi/Desktop/HW4_Tanvi_Ranadive/Corpus/Sabatierreaction.txt'
p1533
aI766
aa(lp1534
S'C:/Users/Tanvi/Desktop/HW4_Tanvi_Ranadive/Corpus/SandiaNationalLaboratories.txt'
p1535
aI767
aa(lp1536
S'C:/Users/Tanvi/Desktop/HW4_Tanvi_Ranadive/Corpus/Savings.txt'
p1537
aI768
aa(lp1538
S'C:/Users/Tanvi/Desktop/HW4_Tanvi_Ranadive/Corpus/Scandinavia.txt'
p1539
aI769
aa(lp1540
S'C:/Users/Tanvi/Desktop/HW4_Tanvi_Ranadive/Corpus/Science.txt'
p1541
aI770
aa(lp1542
S'C:/Users/Tanvi/Desktop/HW4_Tanvi_Ranadive/Corpus/Scotland.txt'
p1543
aI771
aa(lp1544
S'C:/Users/Tanvi/Desktop/HW4_Tanvi_Ranadive/Corpus/ScottishExecutive.txt'
p1545
aI772
aa(lp1546
S'C:/Users/Tanvi/Desktop/HW4_Tanvi_Ranadive/Corpus/SeaGen.txt'
p1547
aI773
aa(lp1548
S'C:/Users/Tanvi/Desktop/HW4_Tanvi_Ranadive/Corpus/Seasonalthermalenergystorage.txt'
p1549
aI774
aa(lp1550
S'C:/Users/Tanvi/Desktop/HW4_Tanvi_Ranadive/Corpus/Seawater.txt'
p1551
aI775
aa(lp1552
S'C:/Users/Tanvi/Desktop/HW4_Tanvi_Ranadive/Corpus/Secondlawofthermodynamics.txt'
p1553
aI776
aa(lp1554
S'C:/Users/Tanvi/Desktop/HW4_Tanvi_Ranadive/Corpus/Sensibleheat.txt'
p1555
aI777
aa(lp1556
S'C:/Users/Tanvi/Desktop/HW4_Tanvi_Ranadive/Corpus/Servicelife.txt'
p1557
aI778
aa(lp1558
S'C:/Users/Tanvi/Desktop/HW4_Tanvi_Ranadive/Corpus/Sevcon.txt'
p1559
aI779
aa(lp1560
S'C:/Users/Tanvi/Desktop/HW4_Tanvi_Ranadive/Corpus/Sewagegas.txt'
p1561
aI780
aa(lp1562
S'C:/Users/Tanvi/Desktop/HW4_Tanvi_Ranadive/Corpus/Sewagetreatment.txt'
p1563
aI781
aa(lp1564
S'C:/Users/Tanvi/Desktop/HW4_Tanvi_Ranadive/Corpus/SGBiofuels.txt'
p1565
aI782
aa(lp1566
S'C:/Users/Tanvi/Desktop/HW4_Tanvi_Ranadive/Corpus/ShepherdsFlatWindFarm.txt'
p1567
aI783
aa(lp1568
S'C:/Users/Tanvi/Desktop/HW4_Tanvi_Ranadive/Corpus/SheringhamShoalOffshoreWindFarm.txt'
p1569
aI784
aa(lp1570
S'C:/Users/Tanvi/Desktop/HW4_Tanvi_Ranadive/Corpus/Shinjuku.txt'
p1571
aI785
aa(lp1572
S'C:/Users/Tanvi/Desktop/HW4_Tanvi_Ranadive/Corpus/Siemens.txt'
p1573
aI786
aa(lp1574
S'C:/Users/Tanvi/Desktop/HW4_Tanvi_Ranadive/Corpus/SigmarGabriel.txt'
p1575
aI787
aa(lp1576
S'C:/Users/Tanvi/Desktop/HW4_Tanvi_Ranadive/Corpus/SilesianUniversityofTechnology.txt'
p1577
aI788
aa(lp1578
S'C:/Users/Tanvi/Desktop/HW4_Tanvi_Ranadive/Corpus/SiliconValleyPower.txt'
p1579
aI789
aa(lp1580
S'C:/Users/Tanvi/Desktop/HW4_Tanvi_Ranadive/Corpus/Simpleliving.txt'
p1581
aI790
aa(lp1582
S'C:/Users/Tanvi/Desktop/HW4_Tanvi_Ranadive/Corpus/Singapore.txt'
p1583
aI791
aa(lp1584
S'C:/Users/Tanvi/Desktop/HW4_Tanvi_Ranadive/Corpus/Skylightwindow.txt'
p1585
aI792
aa(lp1586
S'C:/Users/Tanvi/Desktop/HW4_Tanvi_Ranadive/Corpus/Smartgrid.txt'
p1587
aI793
aa(lp1588
S'C:/Users/Tanvi/Desktop/HW4_Tanvi_Ranadive/Corpus/Smartmeter.txt'
p1589
aI794
aa(lp1590
S'C:/Users/Tanvi/Desktop/HW4_Tanvi_Ranadive/Corpus/Smartphone.txt'
p1591
aI795
aa(lp1592
S'C:/Users/Tanvi/Desktop/HW4_Tanvi_Ranadive/Corpus/Socialcognition.txt'
p1593
aI796
aa(lp1594
S'C:/Users/Tanvi/Desktop/HW4_Tanvi_Ranadive/Corpus/Socialsustainability.txt'
p1595
aI797
aa(lp1596
S'C:/Users/Tanvi/Desktop/HW4_Tanvi_Ranadive/Corpus/SolarDecathlon.txt'
p1597
aI798
aa(lp1598
S'C:/Users/Tanvi/Desktop/HW4_Tanvi_Ranadive/Corpus/Solarenergy.txt'
p1599
aI799
aa(lp1600
S'C:/Users/Tanvi/Desktop/HW4_Tanvi_Ranadive/Corpus/SolarEnergyGeneratingSystems.txt'
p1601
aI800
aa(lp1602
S'C:/Users/Tanvi/Desktop/HW4_Tanvi_Ranadive/Corpus/Solarheating.txt'
p1603
aI801
aa(lp1604
S'C:/Users/Tanvi/Desktop/HW4_Tanvi_Ranadive/Corpus/Solarlamp.txt'
p1605
aI802
aa(lp1606
S'C:/Users/Tanvi/Desktop/HW4_Tanvi_Ranadive/Corpus/Solarphotovoltaics.txt'
p1607
aI803
aa(lp1608
S'C:/Users/Tanvi/Desktop/HW4_Tanvi_Ranadive/Corpus/Solarpower.txt'
p1609
aI804
aa(lp1610
S'C:/Users/Tanvi/Desktop/HW4_Tanvi_Ranadive/Corpus/SolarpowerstationinVictoria.txt'
p1611
aI805
aa(lp1612
S'C:/Users/Tanvi/Desktop/HW4_Tanvi_Ranadive/Corpus/Solarthermal.txt'
p1613
aI806
aa(lp1614
S'C:/Users/Tanvi/Desktop/HW4_Tanvi_Ranadive/Corpus/Solarthermalenergy.txt'
p1615
aI807
aa(lp1616
S'C:/Users/Tanvi/Desktop/HW4_Tanvi_Ranadive/Corpus/Solartrough.txt'
p1617
aI808
aa(lp1618
S'C:/Users/Tanvi/Desktop/HW4_Tanvi_Ranadive/Corpus/Solidoxidefuelcell.txt'
p1619
aI809
aa(lp1620
S'C:/Users/Tanvi/Desktop/HW4_Tanvi_Ranadive/Corpus/Sorghum.txt'
p1621
aI810
aa(lp1622
S'C:/Users/Tanvi/Desktop/HW4_Tanvi_Ranadive/Corpus/Spacebasedsolarpower.txt'
p1623
aI811
aa(lp1624
S'C:/Users/Tanvi/Desktop/HW4_Tanvi_Ranadive/Corpus/Spain.txt'
p1625
aI812
aa(lp1626
S'C:/Users/Tanvi/Desktop/HW4_Tanvi_Ranadive/Corpus/Sparkspread.txt'
p1627
aI813
aa(lp1628
S'C:/Users/Tanvi/Desktop/HW4_Tanvi_Ranadive/Corpus/Specifications.txt'
p1629
aI814
aa(lp1630
S'C:/Users/Tanvi/Desktop/HW4_Tanvi_Ranadive/Corpus/SriLankaSustainableEnergyAuthority.txt'
p1631
aI815
aa(lp1632
S'C:/Users/Tanvi/Desktop/HW4_Tanvi_Ranadive/Corpus/Standalonepowersystem.txt'
p1633
aI816
aa(lp1634
S'C:/Users/Tanvi/Desktop/HW4_Tanvi_Ranadive/Corpus/Standbypower.txt'
p1635
aI817
aa(lp1636
S'C:/Users/Tanvi/Desktop/HW4_Tanvi_Ranadive/Corpus/Steam.txt'
p1637
aI818
aa(lp1638
S'C:/Users/Tanvi/Desktop/HW4_Tanvi_Ranadive/Corpus/Steamengine.txt'
p1639
aI819
aa(lp1640
S'C:/Users/Tanvi/Desktop/HW4_Tanvi_Ranadive/Corpus/Steamturbine.txt'
p1641
aI820
aa(lp1642
S'C:/Users/Tanvi/Desktop/HW4_Tanvi_Ranadive/Corpus/Stewardship.txt'
p1643
aI821
aa(lp1644
S'C:/Users/Tanvi/Desktop/HW4_Tanvi_Ranadive/Corpus/Stirlingengine.txt'
p1645
aI822
aa(lp1646
S'C:/Users/Tanvi/Desktop/HW4_Tanvi_Ranadive/Corpus/Stoves.txt'
p1647
aI823
aa(lp1648
S'C:/Users/Tanvi/Desktop/HW4_Tanvi_Ranadive/Corpus/StrangfordLough.txt'
p1649
aI824
aa(lp1650
S'C:/Users/Tanvi/Desktop/HW4_Tanvi_Ranadive/Corpus/Streetlight.txt'
p1651
aI825
aa(lp1652
S'C:/Users/Tanvi/Desktop/HW4_Tanvi_Ranadive/Corpus/Stressmedicine.txt'
p1653
aI826
aa(lp1654
S'C:/Users/Tanvi/Desktop/HW4_Tanvi_Ranadive/Corpus/Sugarcane.txt'
p1655
aI827
aa(lp1656
S'C:/Users/Tanvi/Desktop/HW4_Tanvi_Ranadive/Corpus/SunEdison.txt'
p1657
aI828
aa(lp1658
S'C:/Users/Tanvi/Desktop/HW4_Tanvi_Ranadive/Corpus/Superconducting.txt'
p1659
aI829
aa(lp1660
S'C:/Users/Tanvi/Desktop/HW4_Tanvi_Ranadive/Corpus/Supergrid.txt'
p1661
aI830
aa(lp1662
S'C:/Users/Tanvi/Desktop/HW4_Tanvi_Ranadive/Corpus/Superinsulation.txt'
p1663
aI831
aa(lp1664
S'C:/Users/Tanvi/Desktop/HW4_Tanvi_Ranadive/Corpus/Sussex.txt'
p1665
aI832
aa(lp1666
S'C:/Users/Tanvi/Desktop/HW4_Tanvi_Ranadive/Corpus/Sustainability.txt'
p1667
aI833
aa(lp1668
S'C:/Users/Tanvi/Desktop/HW4_Tanvi_Ranadive/Corpus/Sustainabilityaccounting.txt'
p1669
aI834
aa(lp1670
S'C:/Users/Tanvi/Desktop/HW4_Tanvi_Ranadive/Corpus/Sustainabilityadvertising.txt'
p1671
aI835
aa(lp1672
S'C:/Users/Tanvi/Desktop/HW4_Tanvi_Ranadive/Corpus/Sustainabilityandenvironmentalmanagement.txt'
p1673
aI836
aa(lp1674
S'C:/Users/Tanvi/Desktop/HW4_Tanvi_Ranadive/Corpus/Sustainabilityandsystemicchangeresistance.txt'
p1675
aI837
aa(lp1676
S'C:/Users/Tanvi/Desktop/HW4_Tanvi_Ranadive/Corpus/Sustainabilitybrand.txt'
p1677
aI838
aa(lp1678
S'C:/Users/Tanvi/Desktop/HW4_Tanvi_Ranadive/Corpus/Sustainabilitymarketingmyopia.txt'
p1679
aI839
aa(lp1680
S'C:/Users/Tanvi/Desktop/HW4_Tanvi_Ranadive/Corpus/Sustainabilitymeasurement.txt'
p1681
aI840
aa(lp1682
S'C:/Users/Tanvi/Desktop/HW4_Tanvi_Ranadive/Corpus/Sustainabilitymetricsandindices.txt'
p1683
aI841
aa(lp1684
S'C:/Users/Tanvi/Desktop/HW4_Tanvi_Ranadive/Corpus/Sustainabilityorganizations.txt'
p1685
aI842
aa(lp1686
S'C:/Users/Tanvi/Desktop/HW4_Tanvi_Ranadive/Corpus/Sustainabilitypracticesinorganizations.txt'
p1687
aI843
aa(lp1688
S'C:/Users/Tanvi/Desktop/HW4_Tanvi_Ranadive/Corpus/Sustainabilityreporting.txt'
p1689
aI844
aa(lp1690
S'C:/Users/Tanvi/Desktop/HW4_Tanvi_Ranadive/Corpus/Sustainabilityscience.txt'
p1691
aI845
aa(lp1692
S'C:/Users/Tanvi/Desktop/HW4_Tanvi_Ranadive/Corpus/Sustainabilitystandardsandcertification.txt'
p1693
aI846
aa(lp1694
S'C:/Users/Tanvi/Desktop/HW4_Tanvi_Ranadive/Corpus/Sustainabilitystudies.txt'
p1695
aI847
aa(lp1696
S'C:/Users/Tanvi/Desktop/HW4_Tanvi_Ranadive/Corpus/Sustainableadvertising.txt'
p1697
aI848
aa(lp1698
S'C:/Users/Tanvi/Desktop/HW4_Tanvi_Ranadive/Corpus/Sustainableagriculture.txt'
p1699
aI849
aa(lp1700
S'C:/Users/Tanvi/Desktop/HW4_Tanvi_Ranadive/Corpus/Sustainablearchitecture.txt'
p1701
aI850
aa(lp1702
S'C:/Users/Tanvi/Desktop/HW4_Tanvi_Ranadive/Corpus/Sustainableart.txt'
p1703
aI851
aa(lp1704
S'C:/Users/Tanvi/Desktop/HW4_Tanvi_Ranadive/Corpus/Sustainablebusiness.txt'
p1705
aI852
aa(lp1706
S'C:/Users/Tanvi/Desktop/HW4_Tanvi_Ranadive/Corpus/Sustainablecity.txt'
p1707
aI853
aa(lp1708
S'C:/Users/Tanvi/Desktop/HW4_Tanvi_Ranadive/Corpus/Sustainablecommunity.txt'
p1709
aI854
aa(lp1710
S'C:/Users/Tanvi/Desktop/HW4_Tanvi_Ranadive/Corpus/Sustainableconsumption.txt'
p1711
aI855
aa(lp1712
S'C:/Users/Tanvi/Desktop/HW4_Tanvi_Ranadive/Corpus/Sustainabledesign.txt'
p1713
aI856
aa(lp1714
S'C:/Users/Tanvi/Desktop/HW4_Tanvi_Ranadive/Corpus/Sustainabledevelopment.txt'
p1715
aI857
aa(lp1716
S'C:/Users/Tanvi/Desktop/HW4_Tanvi_Ranadive/Corpus/SustainableDevelopmentGoals.txt'
p1717
aI858
aa(lp1718
S'C:/Users/Tanvi/Desktop/HW4_Tanvi_Ranadive/Corpus/Sustainableenergy.txt'
p1719
aI859
aa(lp1720
S'C:/Users/Tanvi/Desktop/HW4_Tanvi_Ranadive/Corpus/SustainableEnergyforAll.txt'
p1721
aI860
aa(lp1722
S'C:/Users/Tanvi/Desktop/HW4_Tanvi_Ranadive/Corpus/Sustainablefashion.txt'
p1723
aI861
aa(lp1724
S'C:/Users/Tanvi/Desktop/HW4_Tanvi_Ranadive/Corpus/Sustainablefishery.txt'
p1725
aI862
aa(lp1726
S'C:/Users/Tanvi/Desktop/HW4_Tanvi_Ranadive/Corpus/Sustainableforestmanagement.txt'
p1727
aI863
aa(lp1728
S'C:/Users/Tanvi/Desktop/HW4_Tanvi_Ranadive/Corpus/Sustainablegardening.txt'
p1729
aI864
aa(lp1730
S'C:/Users/Tanvi/Desktop/HW4_Tanvi_Ranadive/Corpus/SustainableHouseDay.txt'
p1731
aI865
aa(lp1732
S'C:/Users/Tanvi/Desktop/HW4_Tanvi_Ranadive/Corpus/Sustainableindustries.txt'
p1733
aI866
aa(lp1734
S'C:/Users/Tanvi/Desktop/HW4_Tanvi_Ranadive/Corpus/Sustainablelandscapearchitecture.txt'
p1735
aI867
aa(lp1736
S'C:/Users/Tanvi/Desktop/HW4_Tanvi_Ranadive/Corpus/Sustainableliving.txt'
p1737
aI868
aa(lp1738
S'C:/Users/Tanvi/Desktop/HW4_Tanvi_Ranadive/Corpus/Sustainablemarket.txt'
p1739
aI869
aa(lp1740
S'C:/Users/Tanvi/Desktop/HW4_Tanvi_Ranadive/Corpus/Sustainablematerialsmanagement.txt'
p1741
aI870
aa(lp1742
S'C:/Users/Tanvi/Desktop/HW4_Tanvi_Ranadive/Corpus/Sustainablepackaging.txt'
p1743
aI871
aa(lp1744
S'C:/Users/Tanvi/Desktop/HW4_Tanvi_Ranadive/Corpus/Sustainableprocurement.txt'
p1745
aI872
aa(lp1746
S'C:/Users/Tanvi/Desktop/HW4_Tanvi_Ranadive/Corpus/Sustainabletourism.txt'
p1747
aI873
aa(lp1748
S'C:/Users/Tanvi/Desktop/HW4_Tanvi_Ranadive/Corpus/Sustainabletransport.txt'
p1749
aI874
aa(lp1750
S'C:/Users/Tanvi/Desktop/HW4_Tanvi_Ranadive/Corpus/Sustainabletransportation.txt'
p1751
aI875
aa(lp1752
S'C:/Users/Tanvi/Desktop/HW4_Tanvi_Ranadive/Corpus/Sustainableurbandrainagesystems.txt'
p1753
aI876
aa(lp1754
S'C:/Users/Tanvi/Desktop/HW4_Tanvi_Ranadive/Corpus/Sustainableurbaninfrastructure.txt'
p1755
aI877
aa(lp1756
S'C:/Users/Tanvi/Desktop/HW4_Tanvi_Ranadive/Corpus/Sustainableyield.txt'
p1757
aI878
aa(lp1758
S'C:/Users/Tanvi/Desktop/HW4_Tanvi_Ranadive/Corpus/SvartsengiPowerStation.txt'
p1759
aI879
aa(lp1760
S'C:/Users/Tanvi/Desktop/HW4_Tanvi_Ranadive/Corpus/Switchgrass.txt'
p1761
aI880
aa(lp1762
S'C:/Users/Tanvi/Desktop/HW4_Tanvi_Ranadive/Corpus/Syntheticfuel.txt'
p1763
aI881
aa(lp1764
S'C:/Users/Tanvi/Desktop/HW4_Tanvi_Ranadive/Corpus/Tankership.txt'
p1765
aI882
aa(lp1766
S'C:/Users/Tanvi/Desktop/HW4_Tanvi_Ranadive/Corpus/Tankertruck.txt'
p1767
aI883
aa(lp1768
S'C:/Users/Tanvi/Desktop/HW4_Tanvi_Ranadive/Corpus/Technology.txt'
p1769
aI884
aa(lp1770
S'C:/Users/Tanvi/Desktop/HW4_Tanvi_Ranadive/Corpus/Temperature.txt'
p1771
aI885
aa(lp1772
S'C:/Users/Tanvi/Desktop/HW4_Tanvi_Ranadive/Corpus/Temperaturegradient.txt'
p1773
aI886
aa(lp1774
S'C:/Users/Tanvi/Desktop/HW4_Tanvi_Ranadive/Corpus/TeslaModelS.txt'
p1775
aI887
aa(lp1776
S'C:/Users/Tanvi/Desktop/HW4_Tanvi_Ranadive/Corpus/ThanetWindFarm.txt'
p1777
aI888
aa(lp1778
S'C:/Users/Tanvi/Desktop/HW4_Tanvi_Ranadive/Corpus/TheCarbonTrust.txt'
p1779
aI889
aa(lp1780
S'C:/Users/Tanvi/Desktop/HW4_Tanvi_Ranadive/Corpus/TheGeysers.txt'
p1781
aI890
aa(lp1782
S'C:/Users/Tanvi/Desktop/HW4_Tanvi_Ranadive/Corpus/TheGreenBuildingLouisvilleKentucky.txt'
p1783
aI891
aa(lp1784
S'C:/Users/Tanvi/Desktop/HW4_Tanvi_Ranadive/Corpus/TheGreenDeal.txt'
p1785
aI892
aa(lp1786
S'C:/Users/Tanvi/Desktop/HW4_Tanvi_Ranadive/Corpus/TheInstitutionofMechanicalEngineers.txt'
p1787
aI893
aa(lp1788
S'C:/Users/Tanvi/Desktop/HW4_Tanvi_Ranadive/Corpus/TheLebaneseCenterforEnergyConservation.txt'
p1789
aI894
aa(lp1790
S'C:/Users/Tanvi/Desktop/HW4_Tanvi_Ranadive/Corpus/Thermalefficiency.txt'
p1791
aI895
aa(lp1792
S'C:/Users/Tanvi/Desktop/HW4_Tanvi_Ranadive/Corpus/Thermalenergy.txt'
p1793
aI896
aa(lp1794
S'C:/Users/Tanvi/Desktop/HW4_Tanvi_Ranadive/Corpus/Thermalenergystorage.txt'
p1795
aI897
aa(lp1796
S'C:/Users/Tanvi/Desktop/HW4_Tanvi_Ranadive/Corpus/Thermalinsulation.txt'
p1797
aI898
aa(lp1798
S'C:/Users/Tanvi/Desktop/HW4_Tanvi_Ranadive/Corpus/Thermalmass.txt'
p1799
aI899
aa(lp1800
S'C:/Users/Tanvi/Desktop/HW4_Tanvi_Ranadive/Corpus/Thermalpowerplant.txt'
p1801
aI900
aa(lp1802
S'C:/Users/Tanvi/Desktop/HW4_Tanvi_Ranadive/Corpus/Thermalpowerplants.txt'
p1803
aI901
aa(lp1804
S'C:/Users/Tanvi/Desktop/HW4_Tanvi_Ranadive/Corpus/TheVenusProject.txt'
p1805
aI902
aa(lp1806
S'C:/Users/Tanvi/Desktop/HW4_Tanvi_Ranadive/Corpus/ThomasEdison.txt'
p1807
aI903
aa(lp1808
S'C:/Users/Tanvi/Desktop/HW4_Tanvi_Ranadive/Corpus/Thorium.txt'
p1809
aI904
aa(lp1810
S'C:/Users/Tanvi/Desktop/HW4_Tanvi_Ranadive/Corpus/Thoriumbasednuclearpower.txt'
p1811
aI905
aa(lp1812
S'C:/Users/Tanvi/Desktop/HW4_Tanvi_Ranadive/Corpus/Thoriumfuelcycle.txt'
p1813
aI906
aa(lp1814
S'C:/Users/Tanvi/Desktop/HW4_Tanvi_Ranadive/Corpus/Threephaseelectricpower.txt'
p1815
aI907
aa(lp1816
S'C:/Users/Tanvi/Desktop/HW4_Tanvi_Ranadive/Corpus/Tidalpower.txt'
p1817
aI908
aa(lp1818
S'C:/Users/Tanvi/Desktop/HW4_Tanvi_Ranadive/Corpus/Tidalstreamgenerator.txt'
p1819
aI909
aa(lp1820
S'C:/Users/Tanvi/Desktop/HW4_Tanvi_Ranadive/Corpus/TopGeartesttrack.txt'
p1821
aI910
aa(lp1822
S'C:/Users/Tanvi/Desktop/HW4_Tanvi_Ranadive/Corpus/ToyotaPrius.txt'
p1823
aI911
aa(lp1824
S'C:/Users/Tanvi/Desktop/HW4_Tanvi_Ranadive/Corpus/Tragedyofthecommons.txt'
p1825
aI912
aa(lp1826
S'C:/Users/Tanvi/Desktop/HW4_Tanvi_Ranadive/Corpus/Transformer.txt'
p1827
aI913
aa(lp1828
S'C:/Users/Tanvi/Desktop/HW4_Tanvi_Ranadive/Corpus/TransMediterraneanRenewableEnergyCooperation.txt'
p1829
aI914
aa(lp1830
S'C:/Users/Tanvi/Desktop/HW4_Tanvi_Ranadive/Corpus/Transmissionsystemoperator.txt'
p1831
aI915
aa(lp1832
S'C:/Users/Tanvi/Desktop/HW4_Tanvi_Ranadive/Corpus/Transmissiontower.txt'
p1833
aI916
aa(lp1834
S'C:/Users/Tanvi/Desktop/HW4_Tanvi_Ranadive/Corpus/Treestump.txt'
p1835
aI917
aa(lp1836
S'C:/Users/Tanvi/Desktop/HW4_Tanvi_Ranadive/Corpus/Trigeneration.txt'
p1837
aI918
aa(lp1838
S'C:/Users/Tanvi/Desktop/HW4_Tanvi_Ranadive/Corpus/Turbine.txt'
p1839
aI919
aa(lp1840
S'C:/Users/Tanvi/Desktop/HW4_Tanvi_Ranadive/Corpus/Turbocharger.txt'
p1841
aI920
aa(lp1842
S'C:/Users/Tanvi/Desktop/HW4_Tanvi_Ranadive/Corpus/Turboexpander.txt'
p1843
aI921
aa(lp1844
S'C:/Users/Tanvi/Desktop/HW4_Tanvi_Ranadive/Corpus/Turkey.txt'
p1845
aI922
aa(lp1846
S'C:/Users/Tanvi/Desktop/HW4_Tanvi_Ranadive/Corpus/UNEP.txt'
p1847
aI923
aa(lp1848
S'C:/Users/Tanvi/Desktop/HW4_Tanvi_Ranadive/Corpus/UnitedKingdom.txt'
p1849
aI924
aa(lp1850
S'C:/Users/Tanvi/Desktop/HW4_Tanvi_Ranadive/Corpus/UnitedNationsConferenceonSustainableDevelopment.txt'
p1851
aI925
aa(lp1852
S'C:/Users/Tanvi/Desktop/HW4_Tanvi_Ranadive/Corpus/UnitedNationsConferenceontheHumanEnvironment.txt'
p1853
aI926
aa(lp1854
S'C:/Users/Tanvi/Desktop/HW4_Tanvi_Ranadive/Corpus/UnitedNationsEnvironmentProgramme.txt'
p1855
aI927
aa(lp1856
S'C:/Users/Tanvi/Desktop/HW4_Tanvi_Ranadive/Corpus/UnitedNationsFrameworkConventiononClimateChange.txt'
p1857
aI928
aa(lp1858
S'C:/Users/Tanvi/Desktop/HW4_Tanvi_Ranadive/Corpus/UnitedNationsMillenniumDeclaration.txt'
p1859
aI929
aa(lp1860
S'C:/Users/Tanvi/Desktop/HW4_Tanvi_Ranadive/Corpus/UnitedStates.txt'
p1861
aI930
aa(lp1862
S'C:/Users/Tanvi/Desktop/HW4_Tanvi_Ranadive/Corpus/UnitedStatesDepartmentofEnergy.txt'
p1863
aI931
aa(lp1864
S'C:/Users/Tanvi/Desktop/HW4_Tanvi_Ranadive/Corpus/UnitedStatesEnvironmentalProtectionAgency.txt'
p1865
aI932
aa(lp1866
S'C:/Users/Tanvi/Desktop/HW4_Tanvi_Ranadive/Corpus/UnitedStatesGreenBuildingCouncil.txt'
p1867
aI933
aa(lp1868
S'C:/Users/Tanvi/Desktop/HW4_Tanvi_Ranadive/Corpus/UniversalMeteringInterface.txt'
p1869
aI934
aa(lp1870
S'C:/Users/Tanvi/Desktop/HW4_Tanvi_Ranadive/Corpus/UniversityofNewHampshire.txt'
p1871
aI935
aa(lp1872
S'C:/Users/Tanvi/Desktop/HW4_Tanvi_Ranadive/Corpus/UniversityofNorthCarolina.txt'
p1873
aI936
aa(lp1874
S'C:/Users/Tanvi/Desktop/HW4_Tanvi_Ranadive/Corpus/Uranium.txt'
p1875
aI937
aa(lp1876
S'C:/Users/Tanvi/Desktop/HW4_Tanvi_Ranadive/Corpus/Uraniumfuelcycle.txt'
p1877
aI938
aa(lp1878
S'C:/Users/Tanvi/Desktop/HW4_Tanvi_Ranadive/Corpus/Urbandensity.txt'
p1879
aI939
aa(lp1880
S'C:/Users/Tanvi/Desktop/HW4_Tanvi_Ranadive/Corpus/Urbanhorticulture.txt'
p1881
aI940
aa(lp1882
S'C:/Users/Tanvi/Desktop/HW4_Tanvi_Ranadive/Corpus/USDA.txt'
p1883
aI941
aa(lp1884
S'C:/Users/Tanvi/Desktop/HW4_Tanvi_Ranadive/Corpus/USDepartmentofEnergy.txt'
p1885
aI942
aa(lp1886
S'C:/Users/Tanvi/Desktop/HW4_Tanvi_Ranadive/Corpus/USGreenBuildingCouncil.txt'
p1887
aI943
aa(lp1888
S'C:/Users/Tanvi/Desktop/HW4_Tanvi_Ranadive/Corpus/Utilitypole.txt'
p1889
aI944
aa(lp1890
S'C:/Users/Tanvi/Desktop/HW4_Tanvi_Ranadive/Corpus/Variablerenewableenergy.txt'
p1891
aI945
aa(lp1892
S'C:/Users/Tanvi/Desktop/HW4_Tanvi_Ranadive/Corpus/Variablespeeddrives.txt'
p1893
aI946
aa(lp1894
S'C:/Users/Tanvi/Desktop/HW4_Tanvi_Ranadive/Corpus/Vegetableoilusedasfuel.txt'
p1895
aI947
aa(lp1896
S'C:/Users/Tanvi/Desktop/HW4_Tanvi_Ranadive/Corpus/Vehiclefleet.txt'
p1897
aI948
aa(lp1898
S'C:/Users/Tanvi/Desktop/HW4_Tanvi_Ranadive/Corpus/ViennaClimateChangeTalks2007.txt'
p1899
aI949
aa(lp1900
S'C:/Users/Tanvi/Desktop/HW4_Tanvi_Ranadive/Corpus/VincenzoBalzani.txt'
p1901
aI950
aa(lp1902
S'C:/Users/Tanvi/Desktop/HW4_Tanvi_Ranadive/Corpus/Virtualpowerplant.txt'
p1903
aI951
aa(lp1904
S'C:/Users/Tanvi/Desktop/HW4_Tanvi_Ranadive/Corpus/VirungaNationalPark.txt'
p1905
aI952
aa(lp1906
S'C:/Users/Tanvi/Desktop/HW4_Tanvi_Ranadive/Corpus/Volcanoes.txt'
p1907
aI953
aa(lp1908
S'C:/Users/Tanvi/Desktop/HW4_Tanvi_Ranadive/Corpus/Voltageoptimisation.txt'
p1909
aI954
aa(lp1910
S'C:/Users/Tanvi/Desktop/HW4_Tanvi_Ranadive/Corpus/Wake.txt'
p1911
aI955
aa(lp1912
S'C:/Users/Tanvi/Desktop/HW4_Tanvi_Ranadive/Corpus/WaldpolenzSolarPark.txt'
p1913
aI956
aa(lp1914
S'C:/Users/Tanvi/Desktop/HW4_Tanvi_Ranadive/Corpus/WalneyWindFarm.txt'
p1915
aI957
aa(lp1916
S'C:/Users/Tanvi/Desktop/HW4_Tanvi_Ranadive/Corpus/WashingtonDC.txt'
p1917
aI958
aa(lp1918
S'C:/Users/Tanvi/Desktop/HW4_Tanvi_Ranadive/Corpus/Wasteheat.txt'
p1919
aI959
aa(lp1920
S'C:/Users/Tanvi/Desktop/HW4_Tanvi_Ranadive/Corpus/Wastemanagement.txt'
p1921
aI960
aa(lp1922
S'C:/Users/Tanvi/Desktop/HW4_Tanvi_Ranadive/Corpus/Waterconservation.txt'
p1923
aI961
aa(lp1924
S'C:/Users/Tanvi/Desktop/HW4_Tanvi_Ranadive/Corpus/Watercrisis.txt'
p1925
aI962
aa(lp1926
S'C:/Users/Tanvi/Desktop/HW4_Tanvi_Ranadive/Corpus/Waterdesalination.txt'
p1927
aI963
aa(lp1928
S'C:/Users/Tanvi/Desktop/HW4_Tanvi_Ranadive/Corpus/Waterefficiency.txt'
p1929
aI964
aa(lp1930
S'C:/Users/Tanvi/Desktop/HW4_Tanvi_Ranadive/Corpus/Waterelectrolysis.txt'
p1931
aI965
aa(lp1932
S'C:/Users/Tanvi/Desktop/HW4_Tanvi_Ranadive/Corpus/Waterfootprint.txt'
p1933
aI966
aa(lp1934
S'C:/Users/Tanvi/Desktop/HW4_Tanvi_Ranadive/Corpus/Waterpurification.txt'
p1935
aI967
aa(lp1936
S'C:/Users/Tanvi/Desktop/HW4_Tanvi_Ranadive/Corpus/Wavefarm.txt'
p1937
aI968
aa(lp1938
S'C:/Users/Tanvi/Desktop/HW4_Tanvi_Ranadive/Corpus/Wavepower.txt'
p1939
aI969
aa(lp1940
S'C:/Users/Tanvi/Desktop/HW4_Tanvi_Ranadive/Corpus/WaybackMachine.txt'
p1941
aI970
aa(lp1942
S'C:/Users/Tanvi/Desktop/HW4_Tanvi_Ranadive/Corpus/Werlte.txt'
p1943
aI971
aa(lp1944
S'C:/Users/Tanvi/Desktop/HW4_Tanvi_Ranadive/Corpus/WikimediaFoundation.txt'
p1945
aI972
aa(lp1946
S'C:/Users/Tanvi/Desktop/HW4_Tanvi_Ranadive/Corpus/Wildlife.txt'
p1947
aI973
aa(lp1948
S'C:/Users/Tanvi/Desktop/HW4_Tanvi_Ranadive/Corpus/Willow.txt'
p1949
aI974
aa(lp1950
S'C:/Users/Tanvi/Desktop/HW4_Tanvi_Ranadive/Corpus/Windenergy.txt'
p1951
aI975
aa(lp1952
S'C:/Users/Tanvi/Desktop/HW4_Tanvi_Ranadive/Corpus/Windfarm.txt'
p1953
aI976
aa(lp1954
S'C:/Users/Tanvi/Desktop/HW4_Tanvi_Ranadive/Corpus/Windowfilm.txt'
p1955
aI977
aa(lp1956
S'C:/Users/Tanvi/Desktop/HW4_Tanvi_Ranadive/Corpus/Windowinsulationfilm.txt'
p1957
aI978
aa(lp1958
S'C:/Users/Tanvi/Desktop/HW4_Tanvi_Ranadive/Corpus/Windpower.txt'
p1959
aI979
aa(lp1960
S'C:/Users/Tanvi/Desktop/HW4_Tanvi_Ranadive/Corpus/WindpowerinDenmark.txt'
p1961
aI980
aa(lp1962
S'C:/Users/Tanvi/Desktop/HW4_Tanvi_Ranadive/Corpus/WindpowerinGermany.txt'
p1963
aI981
aa(lp1964
S'C:/Users/Tanvi/Desktop/HW4_Tanvi_Ranadive/Corpus/WindpowerinSpain.txt'
p1965
aI982
aa(lp1966
S'C:/Users/Tanvi/Desktop/HW4_Tanvi_Ranadive/Corpus/Windturbine.txt'
p1967
aI983
aa(lp1968
S'C:/Users/Tanvi/Desktop/HW4_Tanvi_Ranadive/Corpus/Wirelesssensornetworks.txt'
p1969
aI984
aa(lp1970
S'C:/Users/Tanvi/Desktop/HW4_Tanvi_Ranadive/Corpus/Woodgasifier.txt'
p1971
aI985
aa(lp1972
S'C:/Users/Tanvi/Desktop/HW4_Tanvi_Ranadive/Corpus/WorldBank.txt'
p1973
aI986
aa(lp1974
S'C:/Users/Tanvi/Desktop/HW4_Tanvi_Ranadive/Corpus/WorldEnergyEngineeringCongress.txt'
p1975
aI987
aa(lp1976
S'C:/Users/Tanvi/Desktop/HW4_Tanvi_Ranadive/Corpus/WorldSustainableEnergyDays.txt'
p1977
aI988
aa(lp1978
S'C:/Users/Tanvi/Desktop/HW4_Tanvi_Ranadive/Corpus/WorldWideFundforNature.txt'
p1979
aI989
aa(lp1980
S'C:/Users/Tanvi/Desktop/HW4_Tanvi_Ranadive/Corpus/YouTube.txt'
p1981
aI990
aa(lp1982
S'C:/Users/Tanvi/Desktop/HW4_Tanvi_Ranadive/Corpus/Zeroenergybuilding.txt'
p1983
aI991
aa(lp1984
S'C:/Users/Tanvi/Desktop/HW4_Tanvi_Ranadive/Corpus/Zeropopulationgrowth.txt'
p1985
aI992
aatp1986
Rp1987
.